
final.elf:     file format elf32-avr

Sections:
Idx Name          Size      VMA       LMA       File off  Algn
  0 .data         00000032  00800100  00005622  000056b6  2**0
                  CONTENTS, ALLOC, LOAD, DATA
  1 .text         00005622  00000000  00000000  00000094  2**1
                  CONTENTS, ALLOC, LOAD, READONLY, CODE
  2 .bss          000008e9  00800132  00800132  000056e8  2**0
                  ALLOC
  3 .debug_aranges 00000140  00000000  00000000  000056e8  2**0
                  CONTENTS, READONLY, DEBUGGING
  4 .debug_pubnames 00000351  00000000  00000000  00005828  2**0
                  CONTENTS, READONLY, DEBUGGING
  5 .debug_info   00002123  00000000  00000000  00005b79  2**0
                  CONTENTS, READONLY, DEBUGGING
  6 .debug_abbrev 00001048  00000000  00000000  00007c9c  2**0
                  CONTENTS, READONLY, DEBUGGING
  7 .debug_line   00001400  00000000  00000000  00008ce4  2**0
                  CONTENTS, READONLY, DEBUGGING
  8 .debug_frame  000001b0  00000000  00000000  0000a0e4  2**2
                  CONTENTS, READONLY, DEBUGGING
  9 .debug_str    00000634  00000000  00000000  0000a294  2**0
                  CONTENTS, READONLY, DEBUGGING
 10 .debug_loc    00000980  00000000  00000000  0000a8c8  2**0
                  CONTENTS, READONLY, DEBUGGING
 11 .debug_ranges 00000050  00000000  00000000  0000b248  2**0
                  CONTENTS, READONLY, DEBUGGING

Disassembly of section .text:

00000000 <__vectors>:
       0:	0c 94 38 20 	jmp	0x4070	; 0x4070 <__ctors_end>
       4:	0c 94 55 20 	jmp	0x40aa	; 0x40aa <__bad_interrupt>
       8:	0c 94 55 20 	jmp	0x40aa	; 0x40aa <__bad_interrupt>
       c:	0c 94 55 20 	jmp	0x40aa	; 0x40aa <__bad_interrupt>
      10:	0c 94 55 20 	jmp	0x40aa	; 0x40aa <__bad_interrupt>
      14:	0c 94 55 20 	jmp	0x40aa	; 0x40aa <__bad_interrupt>
      18:	0c 94 55 20 	jmp	0x40aa	; 0x40aa <__bad_interrupt>
      1c:	0c 94 55 20 	jmp	0x40aa	; 0x40aa <__bad_interrupt>
      20:	0c 94 55 20 	jmp	0x40aa	; 0x40aa <__bad_interrupt>
      24:	0c 94 55 20 	jmp	0x40aa	; 0x40aa <__bad_interrupt>
      28:	0c 94 55 20 	jmp	0x40aa	; 0x40aa <__bad_interrupt>
      2c:	0c 94 55 20 	jmp	0x40aa	; 0x40aa <__bad_interrupt>
      30:	0c 94 55 20 	jmp	0x40aa	; 0x40aa <__bad_interrupt>
      34:	0c 94 cc 23 	jmp	0x4798	; 0x4798 <__vector_13>
      38:	0c 94 57 20 	jmp	0x40ae	; 0x40ae <__vector_14>
      3c:	0c 94 55 20 	jmp	0x40aa	; 0x40aa <__bad_interrupt>
      40:	0c 94 55 20 	jmp	0x40aa	; 0x40aa <__bad_interrupt>
      44:	0c 94 55 20 	jmp	0x40aa	; 0x40aa <__bad_interrupt>
      48:	0c 94 55 20 	jmp	0x40aa	; 0x40aa <__bad_interrupt>
      4c:	0c 94 55 20 	jmp	0x40aa	; 0x40aa <__bad_interrupt>
      50:	0c 94 55 20 	jmp	0x40aa	; 0x40aa <__bad_interrupt>
      54:	0c 94 55 20 	jmp	0x40aa	; 0x40aa <__bad_interrupt>
      58:	0c 94 55 20 	jmp	0x40aa	; 0x40aa <__bad_interrupt>
      5c:	0c 94 55 20 	jmp	0x40aa	; 0x40aa <__bad_interrupt>
      60:	0c 94 55 20 	jmp	0x40aa	; 0x40aa <__bad_interrupt>
      64:	0c 94 55 20 	jmp	0x40aa	; 0x40aa <__bad_interrupt>
      68:	0c 94 55 20 	jmp	0x40aa	; 0x40aa <__bad_interrupt>
      6c:	0c 94 55 20 	jmp	0x40aa	; 0x40aa <__bad_interrupt>

00000070 <freqTable>:
      70:	80 80 80 80 80 80 80 80 80 80 80 80 80 80 80 80     ................
      80:	80 80 80 80 80 80 80 80 80 80 80 80 80 80 80 80     ................
      90:	80 80 80 80 80 80 80 80 80 80 80 80 80 80 80 80     ................
      a0:	80 80 80 80 80 80 80 80 80 80 80 80 80 80 80 80     ................
      b0:	80 80 80 7e 7b 79 7d 88 92 95 89 71 5a 54 69 92     ...褛蚤惆夤愕峁钒扯舶虫付浒娉涠阜嘲安惫陡鸲慨爱浒愦驸邋岫淬北钡蛋岚涓溷獍钒窗掣刀坍挟鹄钢灏赋岫徨逛覆朵陡钒蜂傅阜复赴锋锋赴龛瘕姘赴赴锋峰蜂赴复阜覆犯繁返付苟沟赴....xqu....
     100:	65 5d 73 98 ad 9c 70 4d 53 7f af b9 93 5a 40 5a     e]s...pMS....Z@Z
     110:	93 bc b2 7f 4e 47 6e a0 b5 9d 71 55 5d 7f 9d 9f     ....NGn...qU]...
     120:	89 70 68 74 85 8d 89 80 79 7a 7e 81 81 80 7f 80     .pht....yz.....
     130:	80 80 7f 7d 7b 7b 81 8a 8f 89 7c 6e 6a 71 7f 8c     ...}{{....|njq..
     140:	95 98 94 86 6c 51 48 61 99 d0 dd ad 56 0f 0b 55     ....lQHa....V..U
     150:	bd ff f0 9a 39 0b 29 75 bb d2 b6 83 5d 53 62 78     ....9.)u....]Sbx
     160:	88 90 90 8c 85 7c 76 75 79 80 84 84 81 7f 7f 80     .....|vuy.......
     170:	80 80 7f 7f 81 83 7f 78 7b 89 8b 79 6b 7d 98 91     .......x{..yk}..
     180:	6b 5f 87 aa 8d 57 5b 99 b5 7f 46 62 ad b5 6c 40     k_...W[...Fb..l@
     190:	74 b9 a8 5b 47 87 b9 94 54 58 94 ac 82 5a 6c 96     t..[G...TX...Zl.
     1a0:	99 79 68 7a 8f 8a 79 76 80 85 81 7e 7e 80 80 80     .yhz..yv...~...
     1b0:	80 80 7f 7e 7d 7e 7e 80 8a 95 8e 70 57 5f 81 99     ...}~....pW_..
     1c0:	99 9a a2 92 56 1f 38 96 df d1 94 70 68 4d 29 41     ....V.8....phM)A
     1d0:	a8 ff ea 81 33 37 5c 6d 78 a3 d0 c1 76 38 3f 72     ....37\mx...v8?r
     1e0:	94 96 90 91 8c 79 6a 6e 7e 88 86 81 7f 7f 7f 80     .....yjn.......
     1f0:	80 80 7f 7d 7f 83 84 7f 7e 82 7d 6f 72 93 ad 91     ...}.....}or...
     200:	50 3d 7b c2 bb 73 4b 67 88 7f 76 9c c0 90 2c 1a     P={..sKg..v...,.
     210:	87 f6 db 5b 16 4f a7 b5 8a 76 85 81 60 5a 89 b5     ...[.O...v..`Z..
     220:	a3 69 51 6f 94 97 83 76 7a 80 80 7f 80 80 80 80     .iQo...vz.......
     230:	80 80 7f 7d 7c 7e 81 84 89 8c 83 6f 64 73 8c 92     ...}|.....ods..
     240:	85 81 93 9b 78 46 41 76 af bc a8 93 78 46 1d 3d     ....xFAv....xF.=
     250:	a8 ff ea 80 2c 2b 5c 83 96 aa b4 9a 66 4a 5f 86     ....,+\.....fJ_.
     260:	94 88 80 86 8c 82 75 72 7b 83 84 82 80 80 7f 80     ......ur{.......
     270:	80 7f 7f 80 83 7c 79 89 88 6e 78 9b 82 5a 87 ad     .....|y..nx..Z..
     280:	69 4f a7 ae 45 5b cb 95 27 7f de 67 23 b0 d2 39     iO..E[..'..g#..9
     290:	3e d5 aa 21 6d de 7a 28 9a c9 56 48 b1 a4 4d 6c     >..!m.z(..VH..Ml
     2a0:	ad 85 5a 84 9a 77 6f 89 88 79 7c 83 80 7f 7f 80     ..Z..wo..y|.....
     2b0:	80 80 7f 7f 7f 79 7a 8a 90 82 81 87 6a 4e 77 a6     .....yz.....jNw.
     2c0:	95 8c b2 92 2f 2f 86 91 7b c6 ee 75 17 51 73 46     ....//..{..u.QsF
     2d0:	82 ff dd 5d 55 76 3b 2d a4 e3 9f 7b 94 6f 35 5a     ...]Uv;-...{.o5Z
     2e0:	9e 9a 85 94 91 6f 67 7b 83 7f 82 84 80 7f 7f 80     .....og{........
     2f0:	80 80 7e 7f 81 7c 7e 8e 89 6a 6c 8e 87 72 99 a7     ....|..jl..r..
     300:	55 37 98 be 74 78 b4 66 0b 7f fc 9d 40 8a 90 21     U7..tx.f....@..!
     310:	58 ff d2 2d 45 a1 6b 50 c5 da 4f 29 8d a0 6d 8a     X..-E.kP..O)..m.
     320:	b0 77 4a 79 9c 84 79 87 82 75 7c 84 81 7f 7f 80     .wJy..y..u|.....
     330:	80 80 7f 7e 7e 7b 7e 8b 8e 7e 79 81 72 64 83 9e     ...~{..y.rd..
     340:	84 79 a1 9a 57 4e 7d 75 67 b6 ec 93 37 4a 58 41     .y..WN}ug...7JXA
     350:	8a ff e0 65 47 5d 42 4f b5 db 91 68 7f 73 54 71     ...eG]BO...h.sTq
     360:	9b 8d 79 8a 90 79 71 7c 7f 7d 81 84 81 7f 7f 80     ..y..yq|.}......
     370:	80 80 7e 7f 84 80 79 81 83 78 84 92 6f 5c 9c b7     .....y..x..o\..
     380:	59 37 aa ce 58 3a a2 a9 61 7f a0 50 56 da b7 08     Y7..X:..a..PV...
     390:	3b ff ca 0b 3d db ad 44 71 9e 6d 75 ae 7f 41 82     ;...=..Dq.mu..A.
     3a0:	c0 7e 49 7f a5 81 6b 7f 88 7e 7e 81 7f 7f 80 80     .I...k..~.....
     3b0:	80 80 7f 7f 7f 7c 7b 84 8a 86 86 82 65 57 84 a6     .....|{.....eW..
     3c0:	86 7a aa a2 47 2d 73 99 96 b7 bb 69 43 74 6c 34     .z..G-s....iCtl4
     3d0:	7b ff dc 53 43 7c 65 49 87 bb a2 91 91 61 3c 6d     {..SC|eI.....a<m
     3e0:	a4 91 79 8d 95 77 69 78 83 82 82 82 80 7f 7f 80     ..y..wix........
     3f0:	80 80 7e 7f 81 80 7e 85 84 76 79 86 78 74 a1 a7     .......vy.xt..
     400:	54 37 96 c6 80 61 8e 7d 4e 7f b5 82 6e a8 7f 14     T7...a.}N...n...
     410:	5b ff d4 2d 32 9c 95 6a 96 a8 69 5d 8b 7f 66 95     [..-2..j..i]..f.
     420:	b2 75 4b 77 9d 89 77 7f 81 7b 7e 81 80 7f 80 80     .uKw..w..{.....
     430:	80 80 7f 7e 7f 7d 7e 86 8a 82 7f 7e 6c 68 8c 9f     ....}....lh..
     440:	7b 6e 9e a6 63 47 6f 81 80 ac c2 84 56 68 57 33     {n..cGo.....VhW3
     450:	84 ff df 5b 3b 66 63 60 9b bb 96 7d 80 67 54 7d     ...[;fc`...}.gT}
     460:	a1 88 71 86 93 7e 71 79 80 7f 81 82 80 7f 7f 80     ..q..qy........
     470:	80 80 7e 80 84 80 77 80 8f 80 68 7f a0 7f 55 7f     .....w...h...U.
     480:	b4 7f 41 7f c8 7f 2e 7f d8 7f 21 7f e3 80 1a 7f     ..A.......!.....
     490:	e6 80 1b 7f e1 80 23 7f d5 80 33 7f c3 80 46 80     ......#...3...F.
     4a0:	af 80 5a 7f 9b 80 6c 80 8b 80 79 7f 82 80 7f 80     ..Z...l...y.....
     4b0:	80 80 7f 7e 7f 7c 79 85 95 8d 77 76 7c 64 57 8b     ....|y...wv|dW.
     4c0:	c4 ab 73 76 7f 44 24 84 e9 c7 7a 84 8c 31 00 71     ..sv.D$...z..1.q
     4d0:	ea cd 86 97 9c 3b 03 62 c9 b7 8a 9e a0 58 2f 65     .....;.b.....X/e
     4e0:	9f 98 85 92 92 74 65 76 85 83 80 82 81 7f 7f 80     .....tev........
     4f0:	80 80 7f 7e 81 80 7c 85 8e 7a 62 78 9d 91 6f 7f     .....|..zbx..o.
     500:	94 65 46 93 da 95 35 58 a1 7f 5b ac db 63 00 62     .eF...5X..[..c.b
     510:	de ae 59 7f a5 54 2b 99 ea 97 39 5e 99 7f 69 98     ..Y..T+...9^..i.
     520:	ab 73 51 76 99 8a 78 80 84 7b 7a 81 82 80 7f 80     .sQv..x..{z.....
     530:	80 80 7f 7e 7e 7c 7c 87 91 86 72 74 80 75 6b 88     ...~||...rt.uk.
     540:	a7 90 70 84 95 60 33 6b bb b6 92 9f 92 32 00 62     ..p..`3k.....2.b
     550:	da d7 9c 92 7e 30 18 79 d1 b8 80 82 88 61 50 7a     ....0.y.....aPz
     560:	9c 8a 79 88 90 7d 70 78 81 80 80 82 82 7f 7f 80     ..y..}px........
     570:	80 80 7e 7f 84 83 78 79 89 87 76 7a 8a 7d 71 8e     .....xy..vz.}q.
     580:	9a 64 51 a3 c8 5d 1c 95 f7 7f 00 67 f9 ac 19 4a     .dQ..].....g...J
     590:	cb b0 4d 61 a2 86 62 91 a3 5f 50 a5 ba 60 3f 92     ..Ma..b.._P..`?.
     5a0:	bd 7a 4d 7b a4 88 6a 78 8a 84 7c 7e 80 80 7f 80     .zM{..jx..|....
     5b0:	80 80 7f 7e 80 7e 79 80 91 91 7e 73 71 65 69 94     ....y...sqei.
     5c0:	b2 95 78 8e 87 32 17 92 ff c1 5a 73 a5 57 00 4d     ..x..2....Zs.W.M
     5d0:	da e7 9c 81 79 45 2f 70 aa 9c 94 b4 9e 46 2b 74     ....yE/p.....F+t
     5e0:	ab 92 78 8e 99 7b 63 71 85 86 81 81 81 7f 7f 80     ..x..{cq........
     5f0:	80 80 7e 7e 82 82 7c 7f 89 81 6d 74 8c 8d 82 8c     ..~..|...mt....
     600:	83 51 51 ae da 77 23 6e c3 7f 37 93 f1 8b 00 39     .QQ..w#n..7....9
     610:	cc d1 79 66 7a 5e 5b a4 c1 79 4e 80 98 66 5e a5     ..yfz^[..yN..f^.
     620:	b9 70 45 74 a1 90 74 79 84 80 7c 7f 81 80 7f 80     .pEt..ty..|.....
     630:	80 80 7f 7e 7f 7e 7c 83 8e 8a 78 72 77 75 77 8f     ....|...xrwuw.
     640:	9b 81 74 96 99 50 27 77 cf b3 78 90 a5 4f 00 48     ..t..P'w..x..O.H
     650:	cf eb ac 80 65 39 39 82 b8 a3 89 96 88 53 4b 85     ....e99......SK.
     660:	a6 87 6f 85 96 82 6e 74 81 82 80 81 81 80 7f 80     ..o...nt........
     670:	80 7f 7e 80 87 7c 70 89 97 6e 61 9b a2 5a 5d ad     ....|p..na..Z].
     680:	9e 4f 69 ae 8d 5b 7a 95 80 7f 7f 67 86 b0 6c 39     .Oi..[z....g..l9
     690:	a5 d5 46 21 cf de 1e 28 ef c9 0a 48 f4 a4 13 6c     ..F!...(...H...l
     6a0:	dd 85 35 84 b6 77 5b 89 94 79 76 83 82 7f 7f 80     ..5..w[..yv.....
     6b0:	80 80 7e 7f 81 79 75 8a 99 82 72 87 7e 4e 5d a6     ....yu...r.N].
     6c0:	b5 8c 8b 92 5b 2f 54 91 b1 c6 b4 75 53 51 35 46     ....[/T....uSQ5F
     6d0:	c0 ff a0 5d 90 76 02 2d d8 e3 70 7b bd 6f 12 5a     ...].v.-..p{.o.Z
     6e0:	bb 9a 6e 94 a2 6f 5b 7b 8a 7f 7e 84 82 7f 7f 80     ..n..o[{.......
     6f0:	80 80 7e 7f 84 7d 77 8c 94 6c 5c 8d 9f 74 75 a3     ....}w..l\..tu.
     700:	82 3f 64 b7 ad 79 6f 69 5d 7f a4 9a 94 88 3f 2c     .?d..yoi].....?,
     710:	ac f1 7a 36 97 9d 26 55 ff d0 18 33 c0 9c 42 89     ..z6..&U...3..B.
     720:	cf 78 33 79 ae 84 6b 87 8b 76 77 83 83 7f 7f 80     .x3y..k..vw.....
     730:	80 80 7e 7e 80 7b 79 8b 95 7e 6e 81 81 64 6f 9e     ..~.{y..n..do.
     740:	9c 79 83 9a 79 4e 57 75 91 b6 bf 93 66 4a 27 41     .y..yNWu....fJ'A
     750:	bb ff b1 65 75 5d 16 4f dd db 6d 68 9f 73 38 71     ...eu].O..mh.s8q
     760:	b2 8d 67 8a 9d 79 68 7c 85 7d 7e 84 82 7f 7f 80     ..g..yh|.}.....
     770:	80 80 7d 7f 87 80 71 81 91 78 6f 92 8c 5c 77 b7     ..}...q..xo..\w.
     780:	88 37 72 ce 98 3a 59 a9 b0 7f 4c 50 ae da 5d 08     .7r..:Y...LP..].
     790:	96 ff 70 0b 94 db 5b 44 bc 9e 29 75 ea 7f 0e 82     ..p...[D..)u....
     7a0:	ea 7e 28 7f be 81 59 7f 92 7e 78 81 81 7f 7f 80     .(...Y..x.....
     7b0:	80 80 7e 7f 81 7c 77 84 92 86 7b 82 74 57 70 a6     ....|w...{.tWp.
     7c0:	9f 7a 8c a2 6a 2d 4c 99 c0 b7 8d 69 73 74 3b 34     .z..j-L....ist;4
     7d0:	ac ff ac 53 71 7c 39 49 b0 bb 7d 91 b1 61 20 6d     ...Sq|9I..}..a m
     7e0:	ba 91 67 8d a2 77 60 78 88 82 7f 82 81 7f 7f 80     ..g..w`x........
     7f0:	80 80 7e 7f 84 80 78 85 8e 76 6b 86 8c 74 87 a7     .....x..vk..t..
     800:	75 37 6e c6 ad 61 5b 7d 85 7f 79 82 ac a8 3f 14     u7n..a[}..y...?.
     810:	9c ff 94 2d 6f 9c 5b 6a cc a8 39 5d b5 7f 42 95     ...-o.[j..9]..B.
     820:	d0 75 33 77 af 89 6b 7f 89 7b 7a 81 82 7f 7f 80     .u3w..k..{z.....
     830:	80 80 7e 7e 80 7d 7a 86 90 82 76 7e 79 68 7b 9f     ..~.}z...vyh{.
     840:	8f 6e 85 a6 7f 47 4f 81 a3 ac 9d 84 7c 68 2f 33     .n...GO.....|h/3
     850:	ac ff b8 5b 61 66 3f 60 bc bb 78 7d 9b 67 3d 7d     ...[af?`..x}.g=}
     860:	b3 88 62 86 9e 7e 69 79 84 7f 7f 82 81 7f 7f 80     ..b..iy........
     870:	80 7f 7e 81 83 7b 7a 8c 85 6a 7f 9e 74 5a 9b a5     ....{z..j..tZ..
     880:	50 62 c2 8b 2e 8d d6 54 2f c9 be 1e 5d f0 80 0e     Pb.....T/...]...
     890:	a3 e6 3d 30 d8 b0 1d 70 df 71 2d a4 bd 4e 59 b4     ..=0...p.q-..NY.
     8a0:	90 50 80 a4 76 68 8c 8c 75 7b 86 80 7d 80 80 80     .P..vh..u{..}...
     8b0:	80 80 7f 7f 7f 79 7b 8b 8d 7f 85 89 64 52 83 9f     .....y{.....dR..
     8c0:	85 96 bd 7d 28 51 8c 6b 80 ea d4 4c 3f 78 45 31     ...}(Q.k...L?xE1
     8d0:	bb ff 98 68 94 5c 0b 5c c9 aa 86 b0 99 3f 41 86     ...h.\.\.....?A.
     8e0:	8b 7b 9a a5 7b 68 79 7e 78 80 88 82 7f 7f 7f 80     .{..{hyx.......
     8f0:	80 80 7e 7f 81 7c 7e 8f 86 69 74 90 7c 74 a6 9d     ....|..it.|t..
     900:	45 4d ab 9c 63 a0 b7 35 1d b9 d7 60 73 bb 4d 08     EM..c..5...`s.M.
     910:	ab ff 73 41 9e 79 24 8d f5 8c 33 7b 95 58 78 c1     ..sA.y$...3{.Xx.
     920:	94 4e 6d 93 7c 78 91 89 72 78 84 81 7f 80 80 80     .Nm.|x..rx......
     930:	80 80 7f 7f 7e 7a 7e 8c 8c 7c 7d 82 6c 65 8c 99     ....z..|}.le..
     940:	78 82 ab 89 4f 68 82 58 6b d4 d8 71 55 69 35 31     x...Oh.Xk..qUi51
     950:	b7 ff aa 6d 7a 4b 1c 72 d1 ae 7e 92 85 4d 5c 92     ...mzK.r....M\.
     960:	8d 75 8a 98 7f 73 7f 7e 77 7e 85 82 7f 80 7f 80     .u...s.w......
     970:	80 7f 7e 80 83 7f 7b 83 80 77 88 91 69 62 a5 a7     .....{..w..ib..
     980:	4e 53 b5 a6 4f 6c a3 73 6c b4 83 24 87 f7 71 00     NS..Ol.sl..$..q.
     990:	91 f3 6c 2c 97 a8 62 83 a5 59 53 ba ae 41 56 b6     ..l,..b..YS..AV.
     9a0:	9e 59 6f 96 84 76 84 82 78 80 86 7f 7d 80 80 80     .Yo..v..x...}...
     9b0:	80 80 7f 7f 80 7c 7c 85 89 84 89 84 60 5a 8d a1     .....||.....`Z..
     9c0:	7a 83 b4 91 40 48 79 7a 98 d5 a9 4a 61 92 48 24     z...@Hyz...Ja.H$
     9d0:	a9 ff a5 5d 77 67 3c 6c a6 90 8e ba 95 3c 45 8f     ...]wg<l.....<E.
     9e0:	94 79 8a 9b 83 71 78 7a 7a 83 87 81 7e 7f 80 80     .y...qxzz......
     9f0:	80 80 7e 7f 81 7f 7e 86 82 74 7e 88 71 75 aa a0     .......t.qu..
     a00:	48 48 a4 ad 73 80 93 58 56 aa 9e 57 91 ca 4f 02     HH..s..XV..W..O.
     a10:	99 ff 8e 3c 76 7f 5d 95 bd 72 53 96 91 4d 6f bd     ...<v.]..rS..Mo.
     a20:	9d 57 64 8b 86 80 89 81 76 7d 84 80 7e 80 80 80     .Wd.....v}.....
     a30:	80 80 7f 7e 7f 7d 7e 87 88 80 82 7f 68 69 93 9b     ....}.....hi..
     a40:	71 76 a6 97 5c 5c 74 68 83 c6 b4 69 6d 81 3a 26     qv..\\th...im.:&
     a50:	a9 ff b2 63 66 56 42 7c b3 98 86 a0 85 47 5a 98     ...cfVB|.....GZ.
     a60:	94 74 80 92 84 79 7d 7b 78 80 85 81 7f 80 80 80     .t...y}{x.......
     a70:	80 7f 7e 81 84 7a 77 8e 89 65 7b a7 79 4d 98 b8     ....zw..e{.yM..
     a80:	50 4a c8 a7 20 70 ee 70 0d b1 ea 2d 29 ed b8 02     PJ.. p.p...-)...
     a90:	6b ff 6f 09 af e1 39 3a d3 a8 2c 73 cb 77 43 96     k.o...9:..,s.wC.
     aa0:	aa 63 66 9b 8b 6a 7d 8e 7e 78 82 82 7e 7f 80 80     .cf..j}.x.....
     ab0:	80 80 7f 80 80 79 7a 8c 8d 78 80 91 6c 4f 85 a9     .....yz..x..lO..
     ac0:	7a 7c bd 91 28 4f a8 79 5b cd e4 51 2b 8e 77 2a     z|..(O.y[..Q+.w*
     ad0:	8f ff a3 48 87 8d 29 42 bf bc 73 8c a6 60 3e 7c     ...H..)B..s..`>|
     ae0:	9b 7e 83 9c 88 6b 74 82 7d 7d 84 83 7f 7f 7f 80     ....kt.}}......
     af0:	80 80 7e 80 82 7b 7b 8e 88 68 74 98 7e 64 9d aa     ....{{..ht.d..
     b00:	4e 46 b0 aa 4f 82 cb 5a 11 a5 e9 5f 48 bf 89 0e     NF..O..Z..._H...
     b10:	7a ff 8e 26 8a ac 41 5b da ad 38 60 a7 79 61 a1     z..&..A[..8`.ya.
     b20:	a4 62 60 8e 8b 76 82 8b 7b 77 81 82 7f 7f 80 80     .b`..v..{w......
     b30:	80 80 7f 7f 80 7a 7c 8c 8c 77 7b 8b 71 5e 8b a2     .....z|..w{.q^..
     b40:	72 71 af 97 46 60 9c 69 52 c0 e4 6c 3f 7f 63 2b     rq..F`.iR..l?.c+
     b50:	94 ff af 51 75 77 31 57 c7 bd 70 7b 94 65 52 87     ...Quw1W..p{.eR.
     b60:	99 79 7b 93 88 73 79 81 7c 7c 83 83 80 7f 7f 80     .y{..sy.||......
     b70:	80 7f 7e 80 84 7d 79 87 84 70 82 9a 70 57 9f b3     ....}y..p..pW..
     b80:	50 46 bb b3 3e 5e c0 81 44 a5 b3 31 55 ee a0 00     PF..>^..D..1U...
     b90:	6a fe 88 13 87 cd 67 55 a8 8a 4a 8d ba 66 48 9c     j.....gU..J..fH.
     ba0:	ad 67 60 92 90 74 7a 86 7f 7c 82 81 7e 7f 80 80     .g`..tz..|.....
     bb0:	80 80 7f 7f 81 7c 7a 87 89 7d 84 8c 68 56 8d a9     .....|z..}..hV..
     bc0:	74 71 b6 9d 3b 48 95 83 74 c1 c0 4e 48 9e 72 21     tq..;H..t..NH.r!
     bd0:	89 ff ac 44 72 8d 4a 53 a6 a5 7c 99 a1 58 41 84     ...Dr.JS..|..XA.
     be0:	9f 7c 7b 96 8c 71 74 7e 7e 80 84 82 7f 7f 80 80     .|{..qt~.......
     bf0:	80 80 7e 7f 82 7d 7c 88 85 70 7b 91 76 68 a2 a9     ....}|..p{.vh..
     c00:	4e 43 aa b4 5e 71 ad 6c 3d 9e bd 59 65 c9 7f 08     NC..^q.l=..Ye...
     c10:	76 ff 9c 28 71 a7 64 6b b7 94 4e 78 a1 6b 5f a4     v..(q.dk..Nx.k_.
     c20:	a8 65 5c 89 8f 7c 7f 85 7c 7b 81 81 7f 7f 80 80     .e\..|..|{......
     c30:	80 80 7f 7f 80 7c 7c 88 89 7b 7f 87 6d 62 91 a3     .....||..{..mb..
     c40:	6e 69 aa a0 52 58 8d 73 68 b8 c5 66 55 8f 61 23     ni..RX.sh..fU.a#
     c50:	8d ff b5 4c 66 7b 4c 63 b1 a9 78 89 92 5e 53 8d     ...Lf{Lc..x..^S.
     c60:	9e 78 74 8f 8b 78 78 7e 7c 7e 83 82 7f 7f 80 80     .xt..xx|......
     c70:	80 7f 7e 80 85 7c 76 88 8d 71 70 94 8e 66 76 99     ....|v..qp..fv.
     c80:	83 6c 82 87 79 89 83 62 85 b1 6a 3e ab cb 3b 33     .l..y..b..j>..;3
     c90:	dc c4 0f 4a fc a0 00 75 f9 76 15 98 d6 5e 3f a3     ...J...u.v...^?.
     ca0:	aa 60 66 98 8c 70 7b 88 80 7c 80 80 7f 80 80 80     .`f..p{..|......
     cb0:	80 80 7f 7f 81 7b 78 88 91 7f 79 86 78 5d 70 98     .....{x...y.x]p.
     cc0:	9a 91 93 7e 5c 5c 66 70 a6 d1 97 59 79 7a 27 44     ...\\fp...Yyz'D
     cd0:	d8 e0 67 6e b9 65 00 64 db a0 63 a4 b0 4f 38 84     ..gn.e.d..c..O8.
     ce0:	9d 7c 84 9c 88 6d 72 7e 7f 80 83 82 80 7f 7f 80     .|...mr........
     cf0:	80 80 7e 7f 83 7d 7a 8a 8d 70 6b 8b 8f 77 83 94     ....}z..pk..w..
     d00:	74 5d 7b 94 93 96 7a 4c 6b a8 88 6a ad a9 25 2d     t]{...zLk..j..%-
     d10:	d6 d8 40 54 ca 7b 0e 89 ff 88 20 7c b3 64 5b ad     ..@T.{.... |.d[.
     d20:	a7 5d 5e 8d 8c 7a 81 86 7d 7a 7f 81 80 80 7f 80     .]^..z..}z......
     d30:	80 80 7f 7f 80 7b 7a 8b 91 7d 74 82 7b 68 79 96     .....{z..}t.{hy.
     d40:	8e 82 8d 88 70 6a 61 5c 91 cc a9 72 81 6b 12 38     ....pja\...r.k.8
     d50:	db f4 7d 6f a2 4f 00 73 ec aa 5f 91 a0 52 47 91     ..}o.O.s.._..RG.
     d60:	9f 76 7a 95 8a 74 77 7e 7c 7e 82 82 80 80 7f 80     .vz..tw|......
     d70:	80 7f 7e 80 86 7f 75 83 8c 77 77 91 80 62 87 a7     .....u..ww..b..
     d80:	74 53 88 a6 83 6c 69 73 ac b4 3f 24 cf f7 28 00     tS...lis..?$..(.
     d90:	da f3 24 2c dd a8 1f 83 e3 59 1c ba de 41 2d b6     ..$,.....Y...A-.
     da0:	c0 59 54 96 98 76 76 82 81 80 81 7f 7e 80 80 80     .YT..vv........
     db0:	80 80 7e 7f 81 7c 78 85 90 84 7e 84 6f 5a 7a a1     ....|x....oZz.
     dc0:	92 83 98 91 61 48 54 7a c0 d5 7e 4a 8d 92 1a 24     ....aHTz..J...$
     dd0:	d7 ff 78 5d a3 67 13 6c cd 90 6b ba b4 3c 2b 8f     ..x].g.l..k..<+.
     de0:	aa 79 79 9b 90 71 6f 7a 7f 83 84 81 7f 7f 7f 80     .yy..qoz........
     df0:	80 80 7e 7f 84 7f 79 86 8b 74 70 88 84 75 92 a0     .....y..tp..u..
     e00:	67 48 7f ad 9d 80 64 58 89 aa 67 57 cb ca 14 02     gH....dX..gW....
     e10:	d4 ff 53 3c ae 7f 28 95 ef 72 26 96 b8 4d 4e bd     ..S<..(..r&..MN.
     e20:	b9 57 4f 8b 96 80 7e 81 7d 7d 80 80 7f 80 80 80     .WO....}}......
     e30:	80 80 7e 7e 80 7d 7b 87 8e 80 79 7f 74 69 83 9b     ..~.}{...y.ti..
     e40:	85 76 8f 97 77 5c 56 68 a4 c6 90 69 92 81 14 26     .v..w\Vh...i...&
     e50:	cf ff 8c 63 8a 56 1f 7c d3 98 69 a0 9e 47 45 98     ...c.V.|..i..GE.
     e60:	a6 74 72 92 8f 79 75 7b 7d 80 83 81 80 80 7f 80     .tr..yu{}.......
     e70:	80 7f 7e 81 86 7a 72 8d 91 67 6d a4 8e 51 7c b3     ....zr..gm..Q|.
     e80:	75 4f 9b a3 56 71 b2 72 4e ad a6 34 6e e3 73 0e     uO..Vq.rN..4n.s.
     e90:	ac f4 33 14 e7 d8 06 40 ff a4 04 74 ee 77 25 94     ..3....@...t.w%.
     ea0:	c3 66 51 98 9b 6c 71 8d 86 78 7e 82 80 7f 80 80     .fQ..lq..x.....
     eb0:	80 80 7e 80 82 79 76 8c 93 78 77 91 7a 4f 74 a9     ....yv..xw.zOt.
     ec0:	90 7c a3 91 46 4f 86 79 80 cd bd 51 54 8e 4d 2a     .|..FO.y...QT.M*
     ed0:	ba ff 7a 48 af 8d 03 42 e2 bc 53 8c c2 60 26 7c     ..zH...B..S..`&|
     ee0:	ae 7e 74 9c 93 6b 6c 82 82 7d 81 83 80 7f 7f 80     .t..kl..}......
     ef0:	80 80 7e 80 84 7b 77 8d 8f 69 69 97 8e 66 87 a8     ....{w..ii..f..
     f00:	6a 48 8f a8 75 82 a0 5c 42 a3 b6 60 7b bc 57 13     jH..u..\B..`{.W.
     f10:	ad fa 5b 2a ba aa 16 5d ff ab 16 61 c6 79 46 9f     ..[*...]...a.yF.
     f20:	ba 63 4f 8d 98 77 79 8a 81 77 7d 82 80 7f 7f 80     .cO..wy..w}.....
     f30:	80 80 7e 7f 81 7a 79 8c 91 77 73 8b 7d 5e 7d a2     ....zy..ws.}^}.
     f40:	84 71 99 97 5f 60 80 69 70 c0 c3 6c 61 7f 3f 2b     .q.._`.ip..la.?+
     f50:	b7 ff 8c 51 96 77 11 57 e4 bd 56 7b ac 65 3f 87     ...Q.w.W..V{.e?.
     f60:	aa 79 6e 93 92 73 73 81 80 7c 81 83 80 7f 7f 80     .yn..ss..|......
     f70:	80 7f 7e 80 86 7d 74 87 8c 70 76 9a 81 57 89 b3     ....}t..pv..W..
     f80:	6c 46 9a b3 64 5e 96 81 72 a5 82 31 89 ee 6b 00     lF..d^..r..1..k.
     f90:	9f fe 54 13 b9 cd 38 55 d4 8a 23 8d dd 66 2a 9c     ..T...8U..#..f*.
     fa0:	c6 67 4d 92 9f 74 70 86 85 7c 7f 81 7f 7f 80 80     .gM..tp..|......
     fb0:	80 80 7e 7f 82 7c 77 87 8f 7d 7c 8c 73 56 7e a9     ....|w..}|.sV.
     fc0:	86 71 a0 9d 54 48 78 83 92 c1 9f 4e 6a 9e 4e 21     .q..THx....Nj.N!
     fd0:	ac ff 89 44 94 8d 2a 53 c4 a5 61 99 b9 58 2d 84     ...D..*S..a..X-.
     fe0:	b0 7c 6e 96 95 71 6d 7e 82 80 82 82 80 7f 7f 80     .|n..qm........
     ff0:	80 80 7e 7f 84 7d 78 88 8b 70 72 91 83 68 90 a9     ....}x..pr..h..
    1000:	64 43 90 b4 7c 71 8b 6c 62 9e 95 59 8f c9 55 08     dC..|q.lb..Y..U.
    1010:	a1 ff 72 28 99 a7 3e 6b da 94 2e 78 bd 6b 47 a4     ..r(..>k...x.kG.
    1020:	bc 65 4d 89 9b 7c 77 85 81 7b 7e 81 80 7f 80 80     .eM..|w..{.....
    1030:	80 80 7e 7f 81 7c 7a 88 8d 7b 78 87 77 62 85 a3     ....|z..{x.wb..
    1040:	7d 69 98 a0 67 58 75 73 82 b8 a9 66 73 8f 42 23     }i..gXus...fs.B#
    1050:	ac ff 96 4c 83 7b 31 63 ca a9 61 89 a7 5e 42 8d     ...L.{1c..a..^B.
    1060:	ac 78 69 8f 94 78 72 7e 80 7e 81 82 80 7f 7f 80     .xi..xr.......
    1070:	80 7f 7f 82 7e 7a 8a 7d 70 95 7f 60 a0 87 4d a9     ....z.}p..`..M.
    1080:	94 38 ad a6 25 ab bb 16 a2 d1 0f 93 e4 0f 7f f1     .8..%...........
    1090:	18 6c f7 28 5a f5 3c 4d ea 51 47 d9 65 48 c4 75     .l.(Z.<M.QG.eH.u
    10a0:	50 af 80 5b 9c 84 69 8d 84 75 84 82 7d 80 80 80     P..[..i..u..}...
    10b0:	80 80 7f 80 7c 79 84 83 81 96 84 67 7d 6c 58 a0     ....|y.....g}lX.
    10c0:	a9 7f af 8c 27 64 7d 4a be e9 71 8e 8b 00 48 b0     ....'d}J..q...H.
    10d0:	6d b7 fc 65 4f 83 21 4b cb 97 93 ca 69 40 7e 63     m..eO.!K....i@c
    10e0:	68 ae 99 7c 90 78 66 7e 80 7d 86 83 7e 80 7f 80     h..|.xf.}.....
    10f0:	80 7f 7f 81 7d 7b 8b 83 76 8a 75 61 9d 96 6a 9f     ....}{..v.ua..j.
    1100:	7b 31 99 af 5e b5 a0 0b 78 bc 4f b9 d9 10 50 b9     {1..^...x.O...P.
    1110:	41 9e ff 3e 3e ad 40 72 f7 73 4a a2 52 56 c9 8f     A..>>.@r.sJ.RV..
    1120:	62 97 6e 5b 99 8d 76 8a 7e 73 82 82 7e 80 80 80     b.n[..v.s.....
    1130:	80 80 7f 7f 7c 7a 85 85 82 90 7d 66 80 79 68 9b     ....|z....}f.yh.
    1140:	97 6f a2 95 4a 75 76 3c 9f d9 89 a6 92 03 34 97     .o..Juv<......4.
    1150:	79 ca ff 69 40 69 28 62 d7 a1 89 ab 5d 4a 8b 76     y..i@i(b....]J.v
    1160:	70 9f 8a 77 90 7f 6f 7f 7e 7b 84 83 7f 80 7f 80     p..w..o.北钒赴锋锋副锋峰阜犯繁狗父冻腹赋躲徙癞惝飚北赴锋巢岣忏炊覆贡创悴怃鞍犯邃党繁岬伯飘漠玉北拱补广娓膊彻滗犯豆徭窗洞宕跺翅岽腹┊⒐楫冷詈北岚舵瑰跺栋岚羔豆赋赋封复赴枫赴赴赴锂钹楫北獍赴赴锋赴蜂枫赋锋锋垢腹斗反朵豆岽玺黹北惆贯舵徜瑰彻荡躲典沔溷蹈峰规哺吹搞锂乖燧佝ㄅ北浒豆沣骀捣翅付锤碘徜副贯涠朵扯返繁楫缀熔矶躐北灏贩岬糕丰沟峰抖丰副赴付覆峰赴赴赴鳟纡北姘赴锋锋赴峰峰父峰返稿峰冻糕拱蜂岢醍惝辈鞍舵层构怄朵共复潮贯獗车广宕吹翠阜铿懋碑诞磐辈卑吹忖骀炒补峁跺副愣靛侗舛典捶徭贯女穿町掎萸辈舶犯告冻垫逛贡反覆锋饭赋副峰赴赴赴氵舢辈嘲赴赴锋锋蜂枫傅覆赴贡覆斗犯饭返瑰瑛醍辈窗搞洞岜岢刀抖豆村獗沐繁沟岵卜车封洚宙槲癞У辈蛋返涓骀典巢舵瘁跺忖镐拱夥恫幢覆赴醍莶锸町饬辈栋枫构赴范勾赋跺封峰峰傅覆锋赴锋赴霎铥辈钒赴锋峰覆副丰覆复封覆封蜂沟朵抖獯礞辈赴峰撤獬獬捕赋浔翠垫獗反枫复倒獗贯樊Ξ瓦酎佼辈拱贬岱宀北靛骀党层浒拱吹勾镐反羔跺蕻蝇女舢辈岚峰规豆躲岜蜂斗镐父返赴赋峰锋赴赴殪绠醍辈獍赴赴锋赴峰犯赴付傅糕赴贩峰典侗獗齄葆辈惆构陡忖岚备刀岚碘搞溻规副靛卜范腹璁之郛蕨霎辈浒当涓骀炽翠徭测补沅舛蜂岫赋倒抖靛旬纪┊冁辈灏赴後复峰贯返恫赋复丰复复锋锋锋赴踱辈姘赴锋峰副锋丰傅父蜂峰凡贩垢封烦獯蝼螽背鞍跺渤徙惚幢勾惴叉创獍贡规拱闯糕赋睿廉漠卯背卑捕汊骀辈幢滗垂幢彐岵炽丰饭反广赴Ξ廉闪贱舢背舶复苟碘兜岽傅朵镐复凡赴复锋锋赴赴坼懋虍背嘲赴赴锋赴峰饭覆父傅阜丰反副垛跺峁舢腩背窗糕靛徜岽翅陡沟翠犯沅徜狗垛捕靛饭蕻鸿网毽搦背蛋栋宀骀捶床贡潮闯涠夤犯告返垫范钒喈锹泵踹鲳背栋复逛丰丰垢枫夺覆副饭覆复赴锋锋赴戤背钒赴锋峰副副枫覆锋饭阜覆丰父躲返忏祯背赴凡卜舛愎潮躲夤典锋徭党垛规饭岽反颛膘莓与背拱倍愀娑鞍冲骀范斥獯饭挡徜告垫锋封井龌耶弋背岚镐贯点夺峁赋洞阜父犯副覆峰锋赴赴荜洚背獍赴赴锋赴锋封赴赋覆稿傅返范栋舵獠貊囡背惆稿靛夥徜测粹镐夺岜浒复返返锤舵跺蕻水戤貂蕊背浒挡宕骀扯炽徙翠炽獠规付獬复存恫躲耶都图镶背灏糕岵丰枫逛丰冻锋复蜂复赋锋锋赴赴惝背姘赴锋峰赴赴蜂复赋封赋丰返羔丰副獯醍贝鞍斗膊岣沣挡蜂峁垂豆岣繁糕岽陡锋冻纰引砷癞璁贝卑插溷骀北插洳跺档惴腹当贡封冻稿搞钫旬惝贝舶拱告档斗岫羔朵付赋贩赴覆锋赴赴赴甄懋鳟贝嘲赴赴锋锋峰封覆傅赋腹锋烦丰朵饭徕篾睐贝窗覆刀徕徭炊点付点搞愦勾羔蜂闯碘冻之栖墚蜜贝蛋垫邈骀窗车共村当怃岬赴逛贩刀钒饭弋赖窝髦瘗贝栋搞垢凡饭光赴夺锋副封赋赋锋锋锋赴蝙戤贝钒赴锋峰副副枫副峰锋镐繁躲岣复炊构耢飘贝赴徙荡返狗反贯凡虫汊獠鞍糕驸翅幢愣怎舢蚩毫贝拱锋烦糕垂岽愀变栋娴冻蹭舛构典付饭螽僧喈悱莓贝岚锋逛陡豆岵覆兜父羔饭峰副锋赴锋赴栝瀹贝獍赴赴锋赴峰丰锋覆父勾饭豆镐跺锤广楫钊贝惆忮锋搞羔荡斗刀蛋灞溴吹搞夤板变徕早中女贝浒岚獗忮陡赋赋鞍当邂勾躲悴搞捶恫抖璁旬飚氢贝灏副峁复枫光饭栋锋付蜂覆赋赴赴锋赴喈贝姘赴锋峰赴赴蜂赋覆副阜躲夺岬告滇沟礻诋钡鞍垢锤钒岜稿岬躲插岣後层岣娌潮补岱瑞飚暴钡卑腹沟岽挡傅规渤范骀贩巢垢赋冻勾羔耶ｖ鞑惝钡舶复拱栋抖岚腹舵阜傅贩峰副赴赴锋赴噫锂齄钡嘲赴赴锋锋蜂丰副傅腹告凡抖告饭档光蜴债钡窗徨舵傅沟垛返挡炽惴涓垫岫忮按胺狗锂膈壹弋钡蛋岱愎浔豆朵豆鞍恫驺岚斗後枫瘁繁范轫楫猱绠蜀钡栋傅规饭贩广锋抖锋赋封覆赋赴赴锋赴鳟娈钡钒赴锋峰赴副锋赴封蜂稿丰朵沟覆垫广懋弋钡赴构翠封岫峰副冻倒涞岱鞍封娑冻吹垢望阗闩钡拱饭共广创副忏村繁惴刀垂惆沟党封傅漠务稚欲钡岚搞钩恫躲岵阜陡覆父蜂赴赴锋赴赴赴忪璁钡獍赴赴峰赴锋封锋锋阜构峰抖赋躲党岫娈煊钡惆舛舵拱岚倒挡床碘骀灞卜峰洳泊卑镐锂僖论ぎ钡浒光沔浯档斗阜狈倒溽副范溽稿巢蹈繁甄佼霎藏钡灏稿岱饭丰岽蜂碘丰阜赴赋覆锋赴锋赴埴钡姘赴锋峰赴赴锋覆峰锋糕烦陡垢搞豆广箬楫倍鞍搞充返獠钩告点幢怄岱倍狗骀当捕付锦芰薛倍卑赋徭獾闯豆岜吹副灞兜床徕复党羔沟瞄女迓赢倍舶拱搞捣抖岬镐朵覆傅丰锋赴锋赴赴赴祖懋倍嘲赴赴峰锋峰枫副覆阜钩犯洞付犯侗岵洚岙倍窗岽侗腹岱繁冻床垂溴浞吹垢洳变鞍丰岙胥律女倍蛋岜宀宀倒荡朵扁躲甯稿钒怃蜂翅豆赴僭懋飚甬洪倍栋贡广舵返岢复洞封赋蜂覆覆赴赴锋赴秕潲倍钒赴锋峰覆赋丰蜂复复覆朵蜂岱跺村獬睚钗倍赴逛彻镐獗党赋规村勾徭充枫怄滇反构巩赢萎近隰倍拱蹈岫岽贝垢驺卞叉骀拱惫钩獾返陡跺禺蹊倍岚贯瑰荡朵獍蜂典镐稿返蜂赋赴锋锋赴皂莓觚倍獍赴赴峰赴赴犯枫阜搞糕返贩镐典翠獗貅萃倍惆獠陡瑰岚彻刀丰碘舛溷烦副镐卜炊腹璁怪郛螽飘倍浒副涓浔炽封徭鞍补娴舛倒岫岢倒粹靛见┊佼偎倍灏狗後凡峰岣返蹈赋羔丰副复赴锋锋赴蟒踟倍姘赴锋峰副副封锋付傅峰夺饭岵枫恫峁犍猱狈鞍糕撤傅獬繁拱共窗封岫侗垢忖蛋蹈覆樊癞利岙胸狈卑豆忖獾补枫愎补村骀光捕封贯贩封赴楫┪鼷狈舶构贡当垛峁复陡羔腹返蜂赋赴锋锋赴央璁觚狈嘲赴赴峰赴锋饭峰腹搞阜钒烦告夺碘徙痼贳狈窗岵点苟岱党抖反瘁逛洳父构钩舶潮犯墚渔羰兵狈蛋腹骞溴闯抖钩暗虫骀怃捣拱贡典典舵面慨桩葺狈栋垢规夺饭岫枫侗覆付犯赴复副锋锋赴犍岙狈钒赴锋峰副复枫枫锋覆阜返丰光躲点忏斛燔狈赴贡卜贡愎碘躲腹典獬徭便垛涔饭豆反М垤莓氘轸狈拱挡愀忖鞍贩骀窗斥宓饭捕徜舛垫典封耶鳟阑Ξ咻狈岚峁贯炊夺夤赋倒阜告犯峰覆锋锋赴赴脐佼狈獍赴赴峰赴副饭枫赋糕贡丰烦复蹈档怄螽卣狈惆徜档岬夤彻充斗兜浞宓荡凡岫彻扯豆债菇珏则苟狈浒丰骀邋膊典飧卑册邂岱栋惚岣床炽抖⑤喈录狈灏岫徕兜枫獯饭当峰糕枫覆复锋锋锋赴妩瑶狈姘赴锋峰赴覆枫锋赋赋赋朵反瑰饭夺忉眙戤备鞍副狈羔涞范枫赴床垢徜翅镐灏兜炊垫鳇庐寒迤备卑垫宸涠暗碘溻彻蛋骀羔脖钩岜栋舵镐弋郛剐‘囡备舶徜贡斥洞忉糕栋阜糕范蜂赋赴赴赴赴讳喈鳊备嘲赴赴峰锋赴封峰付羔糕返繁付豆抖獬躐殒备窗构存构飧滇档兜档獬浔钒搞岫掣册靛袭谡逭甬釜备蛋复骀邃炒存沟卞垂邈徙栋岵共村档犯聪僧喈握备栋岢广栋贩徙赴靛锋阜封副复赴锋锋赴圜蕻备钒赴锋峰覆副饭覆付饭赴锋锋镐躲繁獠祚备赴跺窗惴规背岽溷脖恫灞栋村峁锋锋赴罾♀辔备拱荡獯岜倍岚甯倍刀骀倒哺沔苟充钩贯援之侉疆备岚躲赴赴锋糕反饭拱枫范阜副枫赴赴赴飚豉霎备獍赴赴锋副峰犯副父赋腹复饭犯典夺徜蓐备惆稿繁愀拱颁跺岫充拱驽贡靛饭吹存反癞町疆搦畔备浒赴灏沣闯锋构鞍瘁邋镐夺浔腹潮躲赴卯十戤膘备灏烦共沟镐腹跺钒复封封父赋蜂赴赴赴螽铕备姘赴锋峰副赴丰复父枫枫犯丰镐枫锋岱惫鞍洞炽獠岬窗後惚便挡沅峰返後朵栋朵浼喇耶醍磬惫卑斗惴獯层赴舛渤舵骀钒吵峁赴粹逛岽绠ｏ鸪水惫舶反犯反饭糕蜂锋镐饭返傅覆峰赴赴赴豇豉醍惫嘲赴赴锋赴蜂犯赋羔傅付蜂反封豆返徕酐轷惫窗副冻忮贯哺封逛测封娑岬丰覆掣扯兜惝付惫蛋父娴溴捶豆锋鞍点驽构兜夤饭车丰镐情墚瀹碟惫栋贩羔羔阜糕返返复饭饭阜赋峰赴赴赴鳟貂惫钒赴锋峰副覆封覆副范傅阜封赴垛副怃霎氘惫赴侗层汊忉便羔愦巢复灞炽炽愕岜烦捣岈伯技笞惫拱翠浞忉鞍枫邈斥冻宕幢车邂狗捕付岣彤汇恋Ξ惫岚枫封繁枫沟丰返羔枫饭父赴封赴赴赴顸醍惫獍赴赴峰赴锋饭副复覆稿腹返跺碘范舛躅埚惫惆复侗沅岽辈滇沟锤峁骀范蛋告典吹刀岙诋犬鲂菖惫浒丰驺灏潮洞逛惫党溻封反宸羔卞冻羔变赢舢惝惫灏锋告糕糕贡凡躲赴封峰腹覆蜂赴赴赴蜢惫姘赴锋峰赴赴封傅傅饭副峰返复饭稿忉醍贬鞍挡扁惚愣炽光飧狈豆滗点侗沐腹翠床耶籍楫茚吐贬卑碘娓浞暗靛愣吵犯骀刀叉沣覆册垢夤郛蕻厨织贬舶覆凡冻返狗赋封羔犯范阜副枫赴赴赴蜚醍霎贬嘲赴赴锋锋峰丰覆付覆腹覆烦反夺赴徜篝戤贬窗饭倒忖岣扯躲糕冲贡遽羔舵勾荡扯村佼鹅井锂远贬蛋赋骀宕冲档覆渤陡灏阜钒愕封插烦沟菊ｈ甬螽贬栋覆付赴复拱丰烦赴丰枫阜覆峰赴赴赴螽贬钒赴锋峰覆覆饭锋腹锋贩枫镐糕靛犯怃鼽搌贬赴斗扯汜徭版腹邈幢冲汊沟翠烦狗岣典缍辆腕贬拱冲洳徭鞍拱骀测炒彐付卜岵峁靛范糕井串М搛贬岚阜覆朵副苟凡凡贡副返赋赋蜂锋赴赴懋蝌醍贬獍赴赴峰副赴贩峰糕阜副赴傅丰当钒忏齄佯贬惆赋靛洳岵鞍栋悴翠豆姹夥捣党垫贩蹈蕻喈烷子喵贬浒洞驸浞脖贩怄搬测邋徕碘獠逛锤倒犯洚△郛荣贬灏阜共赋稿勾躲夺父锋饭付复峰锋赴赴礻贬姘赴锋峰副副饭副糕赴反范阜镐垛赋飧赧氘扁鞍典层惆夥测沟滗叉插愣峁垛枫傅父存莠朦扁卑淬宸悴肮犯溷补垂骀钩卜搞苟栋复垢坍┥М喈扁舶羔封洞枫狗饭犯告峰烦赋赋峰赴赴赴潼螽扁嘲赴赴峰赴锋犯赴搞阜峰封赴蜂垫丰獬啁扁窗饭刀悴岫膊跺獬幢点宀惆凡栋刀侗蛋之㈩淋蜞轴扁蛋舵骀滗插斗岵贝床娌徭碘光搞蛋豆复锂绠庐郛虚扁栋腹羔丰阜钩反繁阜蜂犯傅复锋锋赴赴赳扁钒赴锋峰副覆封锋复蜂枫副父副侗复怃岙扁赴侗潮愦忖渤贩沔荡典悴丰捶父徕贯炊岜ｗ暂钱扁拱幢灞忉鞍返娉村炊沔反斥獗岬挡舵钩廉醍纹艋绎扁岚贡锋兜锋贯犯繁糕副犯复覆蜂锋赴赴瀹癞扁獍赴赴峰赴赴饭峰阜复复傅覆烦刀封忉笾扁惆封刀汜徙钡档徙典赴宀贯挡豆贩繁炊之债莓议黢扁浒冻骀溽舶洞夤插冲浒狗斗忖贯床捣副惝洚井绠伦扁灏拱镐丰羔狗凡夺赋赴封付赋峰锋赴赴蜿扁姘赴锋峰副覆封副父峰饭封复复垛镐怃氘便鞍刀渤怄愣扯赋愀冲垂悴稿栋拱光锋扯郑懂旧喈便卑瘁驸浒鞍栋溽捶荡宥副车瑰苟挡封岚十喈窃诞饮便舶沟犯碘丰广峰返糕峰范赋覆峰赴赴赴埴醍霎便嘲赴赴峰赴锋丰赴父复副锋峰贩冻覆獠縻便窗烦挡忖徨吵洞岚挡繁浯岬垛烦朵垫床笠充荫塍磉便蛋跺骀滗插蹈规车当浯广抖岬糕粹抖羔町禺笛娈随便栋拱付反傅沟饭繁赋峰丰复赋峰锋赴赴舢癞便钒赴锋峰副覆封峰复覆赴返锋垢凡冻岢醍蜚便赴糕党苟苟党构逛充共愦虫点愎锋挡赴赢赢疆寇耶便拱告岽夺车悴愎般恫骀兜辨飧徜当烦共甑猱瀹洋便岚阜赴舵锋勾贩凡糕覆饭覆副峰赴赴赴锂黩便獍赴赴锋赴赴丰蜂付父阜丰丰傅抖侗岵驷便惆广返岚搞闯凡赴村徕溴垛斗瑰荡掣贩醍抿萎腌愿便浒岽愀苟挡岜钩鞍蹈姘羔档怃瑰创典赴耶禺债妮便灏付镐赋羔贡凡朵赋副枫复覆锋赴锋赴蝽便姘赴锋峰赴副枫赴付赋蜂繁枫苟蜂舵逛顸锂变鞍锋翠稿广垛岚共车锋忉碘犯愕繁幢繁彤氘诞埒窳变卑勾獾副幢岬峁备烦骀反补规构蹈赴光廉螽舂禺变舶腹丰豆封钩峰犯腹锋犯副副锋赴赴赴辂变嘲赴赴锋赴锋丰锋父父复范贩阜跺夺岚鲼铌变窗共夺贯钩档枫丰虫贯溽枫封岢垂捕垛戤拯慨搔变蛋峁涓岫档告锋鞍兜驺钩挡徕贡捶陡羔债瀹耶氰变栋腹阜封傅共犯繁赋峰封赋覆锋赴锋赴癞变钒赴锋峰副赋枫蜂副赴复饭枫贡跺垛獠铍变赴覆翅瑰獍党父稿虫獠浔钡捶邋光窗靛寒赢慨钱擂变拱糕愎枫钡獍溽倍陡骀粹惫涔夥车斗岜璁水电变岚沟枫栋蜂岚封朵父赋丰赋赴蜂赴赴赴帻懋变獍赴赴峰赴副丰蜂复父搞峰贩峰栋兜徭齄噱变惆构兜峁规冲垫钒存愎姘存刀舛恫膊碘瀹具鹣现猗变浒岬邃後斥拱贯鞍倒娉封档溽岬册存腹划佼债袭变灏共镐丰羔贯反斗赴副峰傅覆峰赴赴赴翮变姘赴锋峰赴覆蜂锋复副赴反犯贡封贩峁豇鳟卞鞍范撤钩獠跺钩傅车沟悴充夺宀付嘲荡龇町诞疥霸卞卑共涠共哺共獠脖丰骀恫驳舛瑰床犯峁ó→猊馒卞舶沟范碘犯广覆反阜赴饭覆副峰赴赴赴鲔舢卞嘲赴赴峰锋赴丰锋付父腹饭烦赴夺钒徙螽牮卞窗镐滇岜岱荡躲垛虫獬甯兜舵忉档卑存诋造肟屣债卞蛋後驿忖窗枫覆氨陡骀阜挡愦沟嘲典沟傈璁耶拜卞栋沟付繁复贯丰躲赴峰枫傅覆锋赴赴赴癞飚卞钒赴锋峰副赋丰封阜傅犯烦糕苟洞陡獠螽滂卞赴副闯岽岱虫父夤粹朵怄垛刀逛钩犯冻卯慨隧胫卞拱烦愦峰钡獾遽贝幢骀傅狈广忮洞栋腹螽廉溧卞岚构覆侗副逛反朵稿傅范赴覆锋锋赴赴岙繇霎卞獍赴赴峰副副犯封腹糕副犯复付倒洞獗黉卞惆勾洞徜光嘲抖贯刀搞滗搞垫蜂兜档垫洚版之啐逭卞浒镐宕岽吵光獬鞍翅娣岢捶峁徭挡淬饭钞寒钱姨卞灏苟告范糕贯钒斗付复丰赋赋锋锋锋赴霎痃卞姘赴锋峰副覆封蜂腹傅贩钒傅沟钒烦徕黟痼辨鞍贩窗光後蹈拱徕幢栋獾锋钒岚赋恫滇骼禺拎甬廒辨卑枫沔拱泊广惴变档骀稿脖腹峁陡舵共ぎ债‘栾辨舶垢枫典蜂光封烦搞覆范赴覆锋赴赴赴蔟螽霎辨嘲赴赴峰赴赴饭蜂羔糕峰反赴阜冻朵徜舢沩辨窗羔碘岫岜创钒钩垂枫涠贯反复碘创档郛酿牲舢勰辨蛋共姘獠掣腹瑰俺瘁骀後炊垢岚档倒赋府十飘召辨栋狗腹舵付构返躲付副饭覆复锋锋锋赴锂蹯辨钒赴锋峰副复封封复复枫贩父告侗凡怃鳟狎辨赴犯潮峁忖床贩徙荡赋悴当捶獠徕舵炊碑瞒援亚锲辨拱朵灞告鞍规娉卜炊娲反贬獗悴挡刀钩懋飘舢抑辨岚岬锋档锋岫犯豆糕付犯副覆峰锋赴赴债楫辨獍赴赴峰赴覆饭封阜羔复枫覆锋刀垛忉蛛辨惆稿刀獬徙嘲档稿典岚宀犯挡稿贩粹炊之罢莓耶魉辨浒腹骀獾舶阜夤般冲彐狗粹忖獠床床副井水侣辨灏岜镐朵羔岜凡冻赋复封赋赋锋锋赴赴懋蜚辨姘赴锋峰赴赋封蜂阜复饭凡复拱躲封飧虍禧舶鞍跺册岜惆蹈赋岵闯繁怃陡恫舛构捣炽瞠禺民桠准舶卑范姹岵搬腹涑卜蹈骀副便广徭刀兜瑰霎ж皱舶舶岫饭蛋丰岬峰跺羔赋贩赴覆锋赴赴赴喧町鳟舶嘲赴赴峰赴副丰蜂父腹副犯峰副冻返獠沲舶窗赋挡岱徨瘁洞阜挡镐浯父垛共朵虫床耶输耶氘砜舶蛋稿骀怃插贩规备当彐广村岬岚粹荡羔鳟旬萎嗽舶栋规付陡傅瑰饭垛赋副丰赋赋锋锋赴赴璁氘舶钒赴锋赴覆丰傅赴返钩跺锋垢捣岚锋刀醍町桩舶赴惚翠锋忖驳愠赴炒邋插锋涠俺涔赴驳彤ギ串舶拱骀驳锋浞岸涑赴潮遽掣赴怄测夥赴当ギ碑府舶岚忖滇锋广典勾赴凡稿犯锋赋蜂赴赴赴诋莓虍舶獍赴赴赴赴饭锋峰峰狗覆傅付村饭繁繁矽耨舶惆沅糕贯光惫跺捣荡娓沟舛忉鞍豆虫撤钭援榭舶浒驸勾愕沔辈舵炽嘲浞羔忉愣窗丰党锤锛爱历尤舶灏岱赴逛岽垛副钒朵阜峰复傅峰赴锋赴氘痦舶姘赴锋锋赴丰复赋蜂拱朵返羔抖峁拱栋眭娈脖鞍逛窗范怄靛惴反脖獗闯岢邂潮岱蛋舶丽蕻簟卯碑脖卑邋豆岫惚鞍勾凡典娣栋反告卜峁沟反楫蜉圄М脖舶獬蹈跺搞豆构阜返付范锋赋峰赴锋赴仡楫醍霎脖嘲赴赴锋锋饭锋副覆狗峰枫锋刀付锋凡之脖窗夥贩贡岱炽赴当斥浯钩沅浞倍刀舶哺鳟籍鸦脖蛋驺獾溷愀鞍蛋掣瘁邋贯徙岱巢封斗垫懈十阐邕脖栋峁贩镐贯钒腹贩舵赋封赋傅锋赴锋赴鳟甬黠脖钒赴锋锋赴蜂付锋烦羔丰父镐荡沟贡跺螽援脖赴岚创傅愎垂钩兜点娑吹刀岣捶宥繁北漠僧遘胖钱癞脖拱涑陡广岽鞍惚岣刀徜嘲稿沅吹镐凡跺璁之爱女蝾脖岚怃栋舵贡繁苟封舵糕峰副副蜂赴赴赴囡癞锂脖獍赴赴锋锋封副峰丰贡付羔副淬饭副枫贴脖惆獾犯构徙巢点粹豆骀贡告岜蹭腹窗渤曹碎溃脖浒灏徭沐徨案范兜垂獠反忖浔翠陡蛋典鲥僧舢丸休脖灏徨蜂搞光范付钒垛付副复赋峰赴锋赴霎痣脖姘赴锋锋锋枫傅覆饭羔贩峰复侗逛构凡齄岙膊鞍羔充蜂惴跺规恫捶愠挡丰惆靛忖当贝烬町馇寅蕻旬膊卑沣告獬广鞍钩苟繁惚挡赋岽冲羔傅复癞耶井膊舶獾靛兜付犯构副烦傅封赴副峰赴赴赴掊螽膊嘲赴赴锋锋封副赴峰拱覆覆枫档复羔蜂债膊窗岵夺贡獠蛋朵瘁档溻告岢飧窗范册变戤许收丽膊蛋滗愕溷峁鞍典栋靛愦赋徜獯闯垛冻钒萼蕻秒沭膊栋徙范锋共丰糕范跺赋锋赋赋锋赴锋赴霎鲱膊钒赴锋锋副锋副枫锋拱垛封瑰豆蜂复副臌辇膊赴构吹狗忮哺共徙栋镐存夥岽鞍浔獍脖女ó喈袭膊拱岬蜂构枫蹭骞枫卞沐副斗复垛舛恫倒绠氘赓膊岚忮朵豆钩封阜范蜂稿贩峰复峰锋锋赴黹鳊齄膊獍赴锋锋赴蜂峰枫覆勾丰赴拱靛垛饭腹揠膊惆徕烦岢岫辨洞复垛徙稿沐瑰鞍傅贩嘲螽洚氘靼膊浒飧獬悴镐层逛存渤惴岱苟垢豆搞粹当希楫搜膊灏徭覆复光蜂蜂跺贩腹枫副傅锋锋锋赴铟膊姘赴锋锋赴蜂副峰赋钩兜繁贯垛糕共覆羼氘渤鞍羔补贡浯充岫岫炽繁粹溻沅鞍惚搞鞍┊疆捡水渤卑獾岽忏封暗沐钒册娓勾碘豆党忖凡豆皙坶赢蜷渤舶愎侗蹈镐峰拱封蜂糕烦蜂傅锋赴锋赴嶝簖渤嘲赴赴锋锋枫蜂峰付苟范丰搞垫反赋腹鳅唪渤窗岵恫岚獾插舵蜂挡光告骞忉鞍反蹈惫猱稞耶糌渤蛋愕涑溴稿卑傅闯层宓夥贡付蹈镐档点矛禺哲渤栋舛封饭狗锋赋繁范付饭副付赴锋锋赴聆渤钒赴锋锋副锋赋枫封镐繁覆构靛封共糕癞摞渤赴搞炒贯浯吵丰沟舵徕当勾共卞邈岢鞍串锄锂旬渤拱广瑰徭斗版遽逛蹭獬夺反逛朵规蹈斗绠牯懋冂渤岚汜豆典告复搞凡犯镐丰锋覆峰赴赴赴檩蝤渤獍赴赴锋赴蜂锋封锋沟蜂付告村抖傅钩捂渤惆岣栋徜愠钡瘁凡反浒贡忮勾鞍岜垛氨喈黍舢氘渤浒忏溽宀蜂氨岫冻变忮贯岽獬斗封撤荡惝琨吩渤灏愦锋犯逛复副斗钒羔峰覆复峰锋锋赴琊渤姘赴锋锋赴峰覆峰锋搞钒封贡抖阜贯羔瘥娈泊鞍蜂插贡浯荡腹糕倒告蹈峁徙车汊锋鞍援佼禺诞泊卑岵夥惚夺胺怄拱锤愕枫跺复垫贯躲丰戤犬町弋禚泊舶愦兜刀阜付贡饭饭父犯峰赋锋赴赴赴逯泊嘲赴赴锋锋枫锋峰覆钩封锋父倒烦镐拱袤泊窗苟刀岜愠彻垫跺栋獍稿愎後便搞党按之惯钹赢泊蛋忖宥骞蜂鞍父栋斥汊岵垢垢点枫存陡嗷茳翔泊栋怃饭舵钩付阜舵烦付枫覆复锋锋锋赴锂矬泊钒赴锋锋副锋赋封丰钩范凡镐封共陡陡鲵梃泊赴惚冻典岜返岬挡刀邋挡粹徭凡獗捶翠爿醍抑宜虍峭泊拱骀翠捶獍凡徨淬荡遽蹈档岢范瑰垫抖颓虍淘卣霎哝泊岚忖垛垛告枫糕返犯稿封枫副锋赴锋赴腚貘泊獍赴赴锋赴蜂锋封峰苟副饭复躲封洞返禧漉泊惆汊父贩共蹈反幢恫娓稿枫岣党钒哺村鳟佤菱羽ㄎ泊浒骀稿复舛垫反册瘁灏阜付獍繁枫锤滇唪十顸融泊灏徭赴赋垢蜂赴朵烦羔锋赴赋赴赴锋赴眢泊姘赴锋锋赴峰覆蜂峰钩烦躲阜锋广返夺箪蹶驳鞍徨荡倒徕镐獗村虫沔刀斗愎蜂贯测冲再慰昼驳卑骀钒抖徙滇稿捶陡驿夺当羔兜广繁犯疰诋氰暄瀹聒驳舶忖洞栋父锋贡封饭羔饭枫覆赴赴锋赴溧驳嘲赴赴锋锋枫锋蜂副苟峰反锋钒复跺范舢甬铞驳窗忖饭凡光朵赴虫蛋溴镐告忏典恫贝床虍懋啃葩驳蛋骀岬垢獠翠靛哺滇彐共赴光兜枫捣豆娃ㄚ妩组驳栋徭丰丰共赴付凡反阜蜂赴赋赴赴锋赴螋驳钒赴锋锋赴赴复封范告枫丰腹繁告贩烦霎癞黧驳赴獗档洞獬蜂镐创抖骀刀吵广羔惴床巢珍逆殖虏驳拱邋舵侗构捣徨跺恫汜锤冻舛犯腹倒烦镝桩钼茹袤驳岚悴豆侗糕复告凡反镐峰蜂赴锋赴锋赴獒螋.....
    25b0:	80 80 7f 7f 7e 81 7b 7c 92 85 7f 81 66 7a 70 7d     .....{|....fzp}
    25c0:	bb 7a 7a a0 62 65 3a 6f ff 8c 66 98 69 86 2a 3b     .zz.be:o..f.i.*;
    25d0:	ed a2 93 a2 4d 78 49 57 c5 77 8e bb 74 6e 47 66     ....MxIW.w..tnGf
    25e0:	b4 7d 7a 94 84 84 6c 71 89 81 81 82 7f 80 7f 80     .}z...lq........
    25f0:	80 7f 7f 7f 7f 84 7d 7a 92 78 71 84 74 9c 81 72     ......}z.xq.t..r
    2600:	a5 40 5b c4 96 9d 38 4a f0 54 47 bd 95 b8 1c 18     .@[...8J.TG.....
    2610:	ff 8f 7a 9b 3a 92 63 72 ec 54 59 a3 65 89 66 83     ..z.:.cr.TY.e.f.
    2620:	cc 5f 52 86 87 98 77 73 8b 7b 7c 81 7f 80 7f 80     ._R...ws.{|.....
    2630:	80 80 7f 7f 7d 81 7d 7e 95 82 78 7d 67 83 78 7d     ....}.}..x}g.x}
    2640:	b5 6b 75 ae 72 6f 2d 58 f8 8e 78 b3 6f 77 07 25     .ku.ro-X..x.ow.%
    2650:	ff bf aa a5 34 60 3d 61 e1 83 89 af 65 6d 4e 71     ....4`=a....emNq
    2660:	bc 77 70 91 86 8a 6f 6f 87 7f 80 83 80 80 7f 80     .wp...oo........
    2670:	80 7f 7e 81 81 81 76 7f 99 6b 6d 9e 7c 7d 6b 81     .....v..km.|}k.
    2680:	b8 45 72 be 53 92 7c 60 c1 50 7f a4 3b d0 74 21     .Er.S.|`.P..;.t!
    2690:	e1 7d 5d 7c 66 e8 46 1e ff 80 3a 84 93 b6 40 59     .}]|f.F...:...@Y
    26a0:	d9 6d 54 93 8b 87 6a 7d 94 77 7a 84 80 7f 7f 80     .mT...j}.wz.....
    26b0:	80 7f 7f 80 7e 7d 77 83 9f 79 74 92 69 67 62 8a     ....}w..yt.igb.
    26c0:	ce 70 89 ae 33 5f 5c 67 e2 91 ab a3 1b 86 41 21     .p..3_\g......A!
    26d0:	f7 bc 9a 90 4f a2 17 13 ff ae 73 9c 88 8e 24 49     ....O.....s...$I
    26e0:	cf 83 71 9f 8b 7c 61 75 90 7b 7e 85 80 7f 7f 80     ..q..|au.{.....
    26f0:	80 7f 7e 80 80 80 7a 82 95 6c 6a 93 80 88 79 81     .....z..lj...y.
    2700:	a0 40 6f bd 71 9b 75 4e 9f 59 96 b8 51 af 58 22     .@o.q.uN.Y..Q.X"
    2710:	d7 9a 7c 7c 54 b9 49 41 ff 8e 41 6f 7f ab 5a 6f     ..||T.IA..Ao..Zo
    2720:	cc 69 51 89 8b 8c 73 7d 8d 76 7a 84 80 80 7f 80     .iQ...s}.vz.....
    2730:	80 80 7f 7f 7e 7e 7a 85 9b 77 70 8b 70 75 71 89     ....~z..wp.puq.
    2740:	b5 65 83 b0 53 70 5b 56 be 8e b8 b5 35 75 31 22     .e..Sp[V....5u1"
    2750:	ea cb ab 8d 43 85 22 34 ff b2 6f 85 78 8c 40 5f     ....C."4..o.x.@_
    2760:	c5 7c 6a 95 8b 83 6a 77 8b 7a 7e 85 81 7f 7f 80     .|j...jw.z.....
    2770:	80 7f 7e 81 82 83 77 7b 96 71 75 99 71 7b 7a 8b     .....w{.qu.q{z.
    2780:	aa 34 77 d4 5c 7a 67 6f de 51 5e 92 56 ec 69 00     .4w.\zgo.Q^.V.i.
    2790:	d7 9e 75 67 47 ea 68 2d e3 6a 48 9d 93 9f 37 67     ..ugG.h-.jH...7g
    27a0:	e5 69 48 8f 94 8c 67 78 94 7a 7b 82 7f 80 7f 80     .iH...gx.z{.....
    27b0:	80 80 7e 80 7f 7f 76 7f 9d 7d 7a 8f 5f 65 6f 94     .....v..}z._eo.
    27c0:	c4 5f 8d c4 3a 49 48 74 fe 91 8e 94 32 a1 36 00     ._..:IHt....2.6.
    27d0:	f2 db af 7d 32 a7 33 1c ea 9a 7d b4 89 7b 19 54     ...}2.3...}..{.T
    27e0:	dd 7f 65 9d 93 81 5d 70 91 7e 7f 84 7f 7f 7f 80     ..e...]p.......
    27f0:	80 7f 7e 80 80 82 7a 7f 94 70 6f 91 76 87 85 8a     .....z..po.v...
    2800:	97 2e 72 d4 77 89 63 59 ba 58 7b ac 66 cb 4d 00     ..r.w.cY.X{.f.M.
    2810:	d4 b7 90 6a 37 bf 63 48 ef 7c 49 84 80 9a 50 7a     ...j7.cH.|I...Pz
    2820:	db 65 44 87 93 91 6f 79 8e 78 7b 83 80 80 7f 80     .eD...oy.x{.....
    2830:	80 80 7e 7f 7e 7f 7a 82 9b 7b 75 89 66 73 7b 91     ....z..{u.fs{.
    2840:	af 54 86 c6 57 5d 48 5f da 8f a2 ab 44 8c 23 00     .T..W]H_....D.#.
    2850:	ec ea c0 7d 26 88 35 38 f4 a4 77 99 79 7c 34 67     ...}&.58..w.y|4g
    2860:	d5 78 5e 94 93 87 66 72 8c 7c 7f 84 80 7f 7f 80     .x^...fr.|......
    2870:	80 7f 7f 81 7f 80 7c 80 8f 67 7f a2 5f 7d 91 7d     ......|..g.._}.}
    2880:	8b 4d a9 ac 14 b3 b6 35 92 7a a7 78 1c fe 80 00     .M.....5.z.x....
    2890:	e6 87 56 85 6b d2 42 45 fe 4a 4c bf 71 83 68 83     ..V.k.BE.JL.q.h.
    28a0:	af 4b 7f a8 64 7e 87 7f 82 78 84 82 7c 80 80 80     .K..d...x..|...
    28b0:	80 7f 7f 80 7c 7c 7b 84 96 76 84 95 51 66 82 87     ....||{..v..Qf..
    28c0:	a7 7a b8 9d 00 78 8b 45 ba b7 ce 7d 03 a7 4a 08     .z...x.E...}..J.
    28d0:	f9 c6 96 98 53 8b 14 36 fa 81 85 ce 6b 61 46 6d     ....S..6....kaFm
    28e0:	a9 68 98 b1 69 74 7a 77 80 7c 87 84 7d 80 7f 80     .h..itzw.|..}...
    28f0:	80 7f 7f 80 7e 80 7f 84 8d 69 78 96 69 88 98 7d     ........ix.i..}
    2900:	7b 46 9b b0 40 b6 a3 2b 78 7b b7 97 3a d2 60 06     {F..@..+x{..:.`.
    2910:	db a4 78 84 56 a6 45 61 ff 63 4f 9c 63 82 7b 92     ..x.V.Ea.cO.c.{.
    2920:	aa 4d 74 9a 6c 85 8b 7f 7f 77 82 82 7e 80 80 80     .Mt.l....w.....
    2930:	80 80 7f 80 7c 7d 7e 87 94 75 7d 8d 5a 74 8b 86     ....|}..u}.Zt..
    2940:	95 6c ab a3 27 86 82 37 9d af d7 97 1e 91 35 09     .l..'..7......5.
    2950:	ef d7 aa 94 44 70 1c 4f ff 8e 7e af 5f 66 5c 7e     ....Dp.O..._f\
    2960:	a7 64 8a a4 6f 7c 7f 78 7d 7a 85 84 7e 80 7f 80     .d..o|.x}z.....
    2970:	80 7f 7f 81 7f 82 7d 7d 89 72 85 97 5d 7c 99 86     ......}}.r..]|..
    2980:	7e 4a a3 b6 34 93 97 53 a8 7c 82 6c 49 f9 76 00     J..4..S.|.lI.v.
    2990:	c8 a1 73 72 55 c2 6c 5c cb 44 62 c5 76 70 64 8d     ..srU.l\.Db.vpd.
    29a0:	b0 54 74 9c 72 83 83 7a 82 7c 83 81 7c 80 80 80     .Tt.r..z.|..|...
    29b0:	80 80 7f 80 7d 7f 7c 80 91 7c 89 8f 4f 69 8d 8d     ....}.|..|..Oi..
    29c0:	97 6d b2 aa 1a 68 79 5a c8 ae a8 71 2b b8 4a 00     .m...hyZ...q+.J.
    29d0:	e0 d4 a4 84 41 8c 3e 4b d4 70 8d d4 70 56 47 7a     ....A.>K.p..pVGz
    29e0:	ae 69 8a a7 74 7a 78 74 80 7f 86 82 7d 80 80 80     .i..tzxt....}...
    29f0:	80 7f 7f 80 7f 81 7f 80 89 70 7e 90 64 86 9e 85     .........p.d...
    2a00:	73 42 9a b9 50 9c 8e 43 90 7c 96 87 58 db 5d 00     sB..P..C.|..X.].
    2a10:	c7 b6 8a 74 45 a2 67 6e d8 58 5f aa 69 72 74 99     ...tE.gn.X_.irt.
    2a20:	ae 53 6c 94 76 88 86 7b 7f 7a 82 81 7d 80 80 80     .Sl.v..{.z..}...
    2a30:	80 80 7f 7f 7d 7f 7e 83 90 7a 82 89 57 74 93 8c     ....}...z..Wt..
    2a40:	8a 61 a8 af 37 75 74 4a ae a9 b6 89 3c a3 37 00     .a..7utJ....<.7.
    2a50:	dd e2 b4 84 35 75 3f 5d df 7d 86 ba 64 5b 59 87     ....5u?].}..d[Y.
    2a60:	ac 65 7f 9e 77 80 7c 75 7e 7d 85 83 7e 80 80 80     .e..w.|u}.....
    2a70:	80 7f 7f 81 81 7e 7a 84 8f 65 7c a6 68 6c 90 93     .....z..e|.hl..
    2a80:	7d 43 b1 b6 14 94 cb 52 64 7c c9 6f 0a f4 a6 00     }C.....Rd|.o....
    2a90:	ad ad 74 58 68 e9 4f 2b ea 7a 46 95 8c 93 56 79     ..tXh.O+.zF...Vy
    2aa0:	b8 5b 6e a0 77 7a 7e 83 85 77 81 83 7d 80 80 80     .[n.wz..w..}...
    2ab0:	80 7f 7f 80 7e 7c 7a 87 94 72 80 9a 5e 5f 85 96     ....|z..r..^_..
    2ac0:	94 69 b9 a7 0a 6c a5 5c 88 a9 de 75 00 b0 78 0c     .i...l.\...u..x.
    2ad0:	c0 d5 a1 6d 58 ad 2e 27 e5 9d 74 a4 84 77 42 6a     ...mX..'..t..wBj
    2ae0:	b0 70 83 a6 7a 74 75 7c 83 7a 84 84 7e 7f 7f 80     .p..ztu|.z.....
    2af0:	80 7f 7f 81 80 7e 7c 87 8e 66 77 9d 6e 77 97 90     .....|..fw.nw..
    2b00:	73 3d a6 ba 34 9d bc 43 55 7c d4 89 20 d7 87 00     s=..4..CU|.. ...
    2b10:	b0 c1 8b 5c 56 c6 4d 42 f3 87 47 80 7c 91 67 87     ...\V.MB..G.|.g.
    2b20:	b5 59 67 97 7b 81 82 83 82 75 80 83 7e 80 80 80     .Yg.{....u.....
    2b30:	80 80 7f 80 7e 7c 7c 89 94 70 7b 96 60 68 8d 96     ....||..p{.`h..
    2b40:	8a 5c b4 b0 1d 77 9f 4a 77 a8 ef 8b 09 a1 5f 00     .\...w.Jw....._.
    2b50:	c7 eb b4 6d 45 97 28 35 f7 a8 6e 93 76 78 4e 76     ...mE.(5..n.vxNv
    2b60:	b3 6a 7a a1 7c 79 79 7c 81 78 83 85 7f 7f 7f 80     .jz.|yy|.x......
    2b70:	80 7f 7f 81 81 80 7b 81 8a 6e 81 9c 65 6f 96 96     ......{..n..eo..
    2b80:	76 42 ab bc 2e 81 af 64 7e 7c a5 67 32 f2 97 00     vB.....d|.g2...
    2b90:	a0 ba 86 51 57 d8 6e 43 c6 6c 59 a1 8a 81 57 83     ...QW.nC.lY...W.
    2ba0:	b7 5f 69 98 7f 7f 7b 7f 85 7a 81 82 7d 80 80 80     ._i...{..z..}...
    2bb0:	80 7f 7f 80 7f 7d 7a 84 90 76 84 95 59 60 8d 9b     .....}z..v..Y`..
    2bc0:	8b 5f b7 b2 19 5f 95 68 9b a5 c1 6b 1b be 71 00     ._..._.h...k..q.
    2bd0:	b6 e2 ac 62 47 ab 49 36 cd 8d 7c b0 84 6b 40 74     ...bG.I6..|..k@t
    2be0:	b5 6f 7b a1 7f 78 73 79 83 7d 84 83 7e 7f 80 80     .o{..xsy.}.....
    2bf0:	80 7f 7f 80 80 80 7d 83 8a 6d 7c 96 6a 78 9b 93     ......}..m|.jx..
    2c00:	6e 3d a2 be 45 8a a5 56 6f 7d b2 7d 40 da 7f 00     n=..E..Vo}.}@...
    2c10:	a4 c9 96 56 4a bc 69 54 d1 78 57 8f 7e 81 65 8d     ...VJ.iT.xW..e.
    2c20:	b5 5d 63 91 81 84 7f 7f 82 79 81 82 7e 80 80 80     .]c......y.....
    2c30:	80 80 7f 7f 7e 7e 7c 85 90 75 7f 90 5f 6a 93 98     ....~|..u.._j..
    2c40:	81 57 ae b6 31 6b 8e 5a 8a a2 ca 80 2a ad 5e 00     .W..1k.Z....*.^.
    2c50:	b7 ec b8 65 3d 95 48 47 d6 95 78 9e 79 6d 4f 7f     ...e=.HG..x.ymO.
    2c60:	b3 6b 74 9a 81 7e 78 7a 81 7b 83 83 7e 80 80 80     .kt..xz.{.....
    2c70:	80 7f 7f 81 81 80 79 80 91 6e 75 98 77 7e 79 7e     ......y..nu.wy
    2c80:	9f 5c 81 9f 53 a4 82 4b b4 7c 71 7a 65 d9 52 24     .\..S..K.|qze.R$
    2c90:	f6 85 35 83 9c ba 2b 56 ff 59 39 ac 93 82 55 82     ..5...+V.Y9...U.
    2ca0:	b6 5a 6f 9c 78 7e 7d 7f 87 7a 80 81 7e 80 80 80     .Zo.x}..z.....
    2cb0:	80 7f 7f 80 7f 7d 79 83 96 79 7a 8f 6a 6d 71 85     .....}y..yz.jmq.
    2cc0:	b0 7b 91 95 3d 7a 69 55 cc a8 94 7e 4a 9d 31 28     .{..=ziU...J.1(
    2cd0:	ff b3 6a 92 84 88 0e 49 fa 81 66 b9 8b 69 40 72     ..j....I..f..i@r
    2ce0:	b0 6e 83 a4 7a 77 74 79 85 7d 83 83 7f 80 7f 80     .n..zwty.}......
    2cf0:	80 7f 7f 80 80 80 7c 83 90 6e 71 91 7b 86 82 7e     ......|..nq.{..
    2d00:	90 54 7d a4 6b a9 7c 40 9b 7c 85 91 70 bd 41 25     .T}.k.|@.|..p.A%
    2d10:	eb 9b 54 83 85 9c 31 68 ff 6a 3e 95 83 82 66 8e     ..T...1h.j>...f.
    2d20:	b1 5a 69 93 7b 84 81 7f 83 79 7f 82 7f 80 7f 80     .Zi.{....y......
    2d30:	80 80 7f 80 7e 7e 7b 85 95 77 76 8a 6e 77 7a 84     ....~{..wv.nwz.
    2d40:	a2 70 8b 9b 54 84 66 48 b5 a4 a3 92 57 8d 23 24     .p..T.fH....W.#$
    2d50:	f9 c3 7d 90 73 74 13 5a ff 8b 64 a4 7e 6c 50 7e     ..}.st.Z..d.lP
    2d60:	ae 6a 7b 9c 7c 7d 78 7a 82 7b 82 83 7f 80 7f 80     .j{.|}xz.{......
    2d70:	80 7f 7e 81 81 82 78 7d 91 72 7a 97 6d 7c 84 86     .....x}.rz.m|..
    2d80:	97 4a 85 b6 57 93 71 53 d2 7c 55 6c 79 f9 45 00     .J..W.qS.|Uly.E.
    2d90:	f9 a1 43 72 83 c2 40 5c f4 44 3d c5 96 70 49 8d     ..Cr..@\.D=..pI.
    2da0:	c7 54 63 9c 7f 83 79 7a 87 7c 81 81 7d 80 80 80     .Tc...yz.|..}...
    2db0:	80 80 7e 80 7f 7f 79 80 95 7c 7e 8d 61 6b 7b 8c     .....y..|.ak{.
    2dc0:	aa 6e 95 a6 41 6a 59 5d e4 aa 7e 72 5a b3 26 0c     .n..AjY]..rZ.&.
    2dd0:	ff cc 79 84 6e 8b 20 50 ed 71 6d cc 8c 5a 36 7a     ..y.n. P.qm..Z6z
    2de0:	bc 6b 7a a3 80 7b 71 75 85 7f 83 82 7e 80 7f 80     .kz..{qu.......
    2df0:	80 7f 7e 80 80 81 7b 80 90 70 75 90 72 86 8d 85     .....{..pu.r...
    2e00:	89 42 7f b9 6f 9c 6c 43 b5 7c 6e 87 82 db 32 00     .B..o.lC.|n...2.
    2e10:	f2 b6 60 74 6e a2 40 6e fc 58 3f aa 85 72 5c 99     ..`tn.@n.X?..r\.
    2e20:	c2 53 5c 94 81 88 7e 7b 84 7a 80 81 7e 80 80 80     .S\...插嘲赴赴峰锋峰锋封赋沟丰饭腹兜返赋糕艴插窗瑰冻告徜档范刀淬沐岱拱腹洞岵贝按惝睁痔洚插蛋骀溴搞赋典返辨靛驸蜂豆飧峰点吹付蒗蕻楫芘插栋忏抖凡广覆赴返范覆蜂赋赋锋赴锋赴骝貊插钒赴锋峰副覆峰贩复钩豆烦岜犯跺蜂拱鳟轶铨插赴钩粹共獍虫共岜蹈搞枫构繁床宓犯卑水慨禺衤插拱浔岣翠典共溷叉车骀丰插共岫贡创丰洼诞您插岚愦垫侗广复封范赋羔犯峰赋锋赴赴赴哚霎插獍赴锋峰赴赴枫贩付垢烦犯构垛栋返沟鳟篪豚醍插惆岫夺规岬册朵付靛峁岱舛返册徨挡北戤懋蕻酹耶插浒宄浔丰跺蜂徕版测骀广蹈岵广犯叉垛铨禺插灏怄繁返岽复反跺蜂父封副复锋锋锋赴聃纛插姘赴锋峰赴副峰丰付贡夺钒构枫饭傅稿牮叉鞍阜捶糕獗蹈构苟淬封蜂岫阜当汜恫背钱禺帖旬猱叉卑沣夥抖恫峰忖车淬骀付炒赴勾稿捣付驸堤串桩叉舶忮靛典钩傅赴封覆付贩峰赋锋赴锋赴掭齄叉嘲赴赴峰赴锋枫饭父苟凡反共钒垛蜂共螋痣叉窗构恫狗岣创犯赴挡沟岵忮腹炽广创贝猱镍耶籍漠叉蛋溷溽糕钒跺钩惫幢骀岜蹈拱稿饭闯犯痤廉禺螟叉栋忉跺舵光傅丰烦蜂傅丰副复锋锋锋赴铒簖叉钒赴锋峰副覆赴贩副拱跺犯广繁舵付苟鳟铠耧叉赴羔床钩忏垂副拱洞岚枫副斗捣娌繁鞍庐僧洚缱癞叉拱惴忉栋当枫涓粹闯宥躲斥岜岽副幢赋嘌嗣旎廉叉岚愎垫滇垢腹锋反锋腹丰锋覆峰赴赴赴呲舢叉獍赴锋峰赴赴蜂贩复苟范枫沟兜栋峰光鳟鳇遴叉惆逛垫岜獠吵垫犯陡忉岬岚垛冲忮翠鞍弋尺璁刖彤叉浒溽宀腹恫豆徕哺扯邂镐侗獍广垛层反忾ǘ岙氍叉灏愣舵朵岜腹犯躲饭阜蜂覆赋锋锋锋赴镯禊叉姘赴锋峰赴副赴丰赋拱朵反苟返犯镐钩眙貘嘲鞍赴充镐忮靛羔腹刀镐蜂贡蜂恫溽点鞍疆蕻之猱墚嘲卑惴愎反刀垛忏瘁荡邋犯充告沟副当镐糁氘试疆旬嘲舶愕典刀贡羔复饭锋付饭锋覆锋赴赴赴葜嘲嘲赴赴峰锋赴峰饭傅沟返犯拱豆夺傅垢貘殛嘲窗共捣贯舛锤垛反滇岫岵徙赴瘁徜冲鞍桩入糈十井嘲蛋涓邈垢兜点沟测捶娌沟垫瑰稿朵充锋遘钱弋斫嘲栋悴垛陡贯羔峰繁丰傅封副赋锋赴锋赴腓聱嘲钒赴锋锋覆枫赴付犯覆覆锋枫封垢侗锋岙嘲赴獬扯光忉背愠岢背浞赴炽怄繁凡锋稿懂籍耱嘲拱稿充愀赴舶娓捣巢骀彻靛溷充锋峁典疆撞罐疆嘲岚付傅赴封枫告凡锋糕反覆赋枫赴赴赴虍舢嘲獍赴锋锋副丰枫复蜂糕搞复返豆峰碘腹蹰郛嘲惆愀兜徙峁鞍父蜂哺娌忉凡飧淬车淬锋瀹ó虍痰坍嘲浒徨付娲钩钡徜卜卜驸繁共宓窗栋峰村Ё癞类嘲灏阜垢狗糕蜂赋陡犯父饭付傅蜂赴锋赴桫嘲姘赴锋锋副封赴阜蜂赋峰犯贩锋瑰凡锋鳟虍潮鞍广炒拱忖冲愠沟卑獍赴栋沐蜂冻侗饭串井喈汜潮卑沟陡洳赴扁愕刀当骀档典獾翅锋徨烦璁盅蛰寒潮舶腹蜂反范锋共饭锋付反副赋蜂赴赴赴赧舢潮嘲赴锋锋赴丰蜂傅赴羔阜蜂凡舵父豆阜蝻楫潮窗獠滇岚徜捕钩贩辨沅獗腹愎点嘲掣舵诋Ξ鳟馨革潮蛋獍规娓拱卑稿蹭床骀赴腹愠斥洞糕冻庐讳潮栋羔稿腹复赴父钒饭复犯复傅峰赴锋赴瘗潮钒赴锋锋覆枫覆付烦锋父阜犯舵苟钒羔螽锂甬潮赴岫泊规涑变後镐泊娴赴扁徙搞贡反陡ぎぎ翳潮拱阜栋溴夺鞍驸饭虫宕渤夺娴窗豆逛垛喈戤慨ｊ篱潮岚苟副凡犯傅勾跺丰糕犯赋覆封副赴赴蝤铤潮獍赴锋锋赴封峰赋丰父告腹烦侗蜂豆拱筢楫潮惆飧倒徕飧辈反躲炽骀獯倒岫兜荡捶恫佼綮籍佼逶氢潮浒岬岚驸赴暗徙瘁掣溷栋贯姘捶挡返典矢喈且踺潮灏共钩羔阜复阜斗反阜枫付赋蜂赴赴赴玺潮姘赴锋锋副枫副阜饭副赋峰反返广蜂父趱巢鞍共泊钩沔吹徭赋便汜赴创惆钩枫捣滇ぎ女漠宗巢卑告赋宓跺鞍愎凡碘邂床斗汜斥跺岬峰町蜊络活巢舶苟丰豆反付狗范封付范覆覆蜂副赴赴轸鳆霎巢嘲赴锋锋赴封峰傅蜂父糕覆钒陡付返稿痂醍巢窗岫蛋岜忖巢副豆嘲滗徜繁飧钒粹车捣挟伯榘癞鹚底巢蛋岣獯骀赴氨拱瘁存宓钒拱浒幢捣覆跺氏甬磷巢栋钩羔赴覆付搞跺范复丰傅赋峰赴锋赴铞巢钒赴锋锋覆峰峰副峰傅丰枫腹蜂副朵钩懋巢赴光扯岬忮备岚忉斥垢赴贩岵翠羔岢垛懂划鳟彤巢拱跺返愣捣吵骀栋膊宸躲档後兜告阜垫铛壮啖煺瀹巢岚垢付舵峰父阜跺赋搞反赴复蜂赴赴赴稔町舢巢獍赴锋锋副枫封赴副搞赋赴覆跺舵兜构铒瀹巢惆獗刀獯獯鞍贩广幢飧徭光岽叉捣贩冻之鳟廉作巢浒糕岣姘豆脖沣扯贝彐共峰忖栋返夺存椤懂圊晗巢灏垢沟赋羔腹锋兜蜂羔贩赋傅峰锋锋赴妪鳟巢姘赴锋锋副蜂峰赋副付贩范复赴糕范钩黯霎吵鞍拱捕岚汜测徙獯泊傅赴搞忏档丰父碘Ξぎ怔吵卑范拱滗刀便甯蹈叉骀饭村狗刀拱勾躲霎之丿萎之吵舶逛锋兜饭糕镐凡赋腹凡赴复峰赴赴赴妁虍虍吵嘲赴锋锋赴枫枫覆复镐赴丰峰繁犯跺垢聒町吵窗岬瘁徜忏倍覆沟嘲岽徜徜夤翅瘁靛档十爱菏拚吵蛋共忮骀豆辈獠潮驳骀逛犯岣荡返范典楫饱怎鲚吵栋光稿丰傅羔复夺蜂阜范覆付峰赴锋赴挲霎吵钒赴锋锋副锋赴副封赋峰副付返赴犯贯醍吵赴贡册岱沐舶稿峁捶徨赴垫沟恫岜贯当钱弋猱吵拱豆稿涞锤变骀饭蹭洳点垫忖斗锋锋豆楫犬苓绠吵岚岢赋抖枫告糕躲锋搞贩副赋蜂赴赴赴纥飚鳟吵獍赴锋锋副蜂蜂赴峰羔阜傅锋抖跺舵岚骖锂吵惆岣垂夥愕岸抖镐淬沐徨复垢床朵舵垂僧娈坍马锷吵浒付惆骀滇扳沐翠便滗覆付沅侗兜恫倒诋彤徨赓吵灏岢钩丰父告赋冻饭羔丰复复蜂赴赴赴泫吵姘赴锋峰副峰赴赋峰复封封副贩羔副广鳟炒鞍阜贝岽滏插广岬层逛赴烦獗陡共锋充螽璁炒卑繁後娌创鞍彐钒扯姘斗刀徙刀锋搞返癞漠鸲缰之炒舶峁枫滇范共共舵锋羔反赴复蜂赴赴赴邛锂舢炒嘲赴锋锋赴枫蜂覆副羔赋锋枫垛犯饭广滕炒窗构吹徕愦卜反付幢獬岣勾峁挡恫碘闯女舢廉意勖炒蛋搞沣骀垫搬徭村扯宄搞赴獬倒豆钒豆弋味匍痖炒栋岜糕凡赋告阜夺丰阜饭赋复峰赴锋赴虍犏炒钒赴锋锋覆峰赴赴丰父副返蜂羔贡蹈锋觚禺炒赴忖粹犯後当徭范巢宕赴捕徜岚范荡羔锁旬霾Ξ鲈炒拱舛蛋父锋兜涠斥锤骀翠炊惚朵锋复斗挟瀹蝗推懋炒岚构复舵枫腹羔朵锋镐贩锋覆峰赴锋赴稂懋鳟炒獍赴锋锋副蜂蜂锋峰稿腹丰贩丰峰党阜鼹赢炒惆汊垛腹规彻付靛炽婀徙当徕峰炊嘲锋氘巩藜旬瓢炒浒汊傅獠稿党岢备斥骀反钒沅豆斗陡倒赢划麴殓栀炒灏垢共赋父腹覆抖饭糕封覆赋锋赴锋赴纟炒姘赴锋锋副峰赴覆蜂父锋凡饭糕苟抖锋蝙娈车鞍岣捶返徙陡獠凡测愦赴吹忖岵夺闯丰酋璁颢女昝车卑獾朵构锋捣獯虫点骀垫垂岣冻锋稿范懋桩寇呱惝车舶垢蜂豆犯腹稿反锋腹贩峰覆锋赴锋赴轼舢齄车嘲赴锋锋赴枫蜂副赴镐付范返蜂付栋付鲺喈车窗飧冻复岢挡稿靛车溽岫斗飧傅床捕烦惝耶薜绠娄车蛋惴垢忏搞垂糕脖蛋骀赴朵獯侗夺返豆僧⌒懋彡蹰车栋狗羔封赋腹付朵丰阜饭副赋锋赴锋赴睑车钒赴锋峰副锋副赴范付付丰丰覆拱侗阜霎岙车赴獯斥封忮档规兜斥骀赴搬岜獾镐垂跺畸债寤深车拱獬陡贯舵粹溷挡存姹翅翠浞跺舵枫钒璁锼蚁和铒车岚岬副兜丰拱告夺封稿丰赴副蜂赴赴赴妃犒车獍赴锋锋赴蜂锋锋封糕搞锋范反蜂栋搞鲷喈车惆忏恫糕徕吹贩档淬骀岱幢广稿垫巢豆猱坯仗廉卟车浒怄垢忉赴创岵撤垂宄陡饭涞躲典洞兜漠飞棂燧溴车灏瑰稿封傅镐傅抖贩羔蜂覆覆峰赴锋赴骥车姘赴锋峰副峰副覆丰阜覆返范复垢躲阜貊飚扯鞍岬潮贩愦垛峁侗册宕赴驳夥忉蜂吵垫摈氘岐ギ尺扯卑夥赋徜钒翅怄翠栋骀粹瘁惆侗钒父峰鸷袜耸狃扯舶岫丰典返贡勾舵枫羔犯锋覆峰赴赴赴蒗稂扯嘲赴锋锋赴枫锋副峰镐羔饭繁返付抖镐聃娈扯窗夥党阜夥挡副粹车婀徕村獾苟村背倒赢耶说萎萎扯蛋沣獗洳赴蹭告册当骀繁凡沣靛滇躲舵旬耱挹祜扯栋岽腹繁副拱糕陡范父封覆赋锋赴锋赴癞桷扯钒赴锋峰覆赴峰峰峰羔丰烦父羔副靛贡螽蕻扯赴徜炽腹飧冲逛沟幢夤赴党规饭羔犯朵籍井廉赢扯拱垢范垢滇栋娲冲册骀跺斥岫覆稿钒侗霎卩惊罨疳扯岚峁傅恫峰钩付陡赋告返峰赋峰赴锋赴恂璁觜扯獍赴锋锋副峰枫蜂副拱覆犯覆枫繁倒苟褓扯惆忮碘狗徨补犯枫垂浔峁范规典点荡抖郛僧霎蒈枣扯浒徨岢怃垛蛋悴卞脖骀告恫獯枫范蹈档胄‘猱鲐扯灏岫钩返腹共锋恫蜂镐犯赴复锋锋锋赴醍恺扯姘赴锋锋副锋峰锋副羔饭钒赋糕父夺告甬戤撤鞍瑰翅赋夤刀岵搞掣岵赴豆徭赴枫冻冻寒之府楫沣撤卑光搞岫垫荡浔幢幢骀封虫共范搞枫钒咴亮慨霎撤舶岫锋靛丰共羔舵赋糕返蜂赋锋赴锋赴搡锂觚撤嘲赴锋锋赴峰枫锋赋告赴反峰峰丰兜钩酤瀹撤窗徜档拱徭闯覆贩窗飧岢付徜陡档吹靛债卯骼枵呸撤蛋徨獗愕跺捶岣驳掣骀狗侗岚凡贩抖洞钋ジ岙蝼驿撤栋岽糕舵复贡赋豆蜂腹犯赴复锋赴锋赴锂辇撤钒赴锋峰副赴赴蜂封腹峰犯付覆赴抖贯娈撤赴岣册搞沐虫稿阜捶浯赴撤沟搞岜舵当慨钱樊镅撤拱勾稿徕锤炊骀挡蹭娑点虫忖赋锋斗豆绕噎芸玳撤岚夥赋刀枫贯糕洞锋贡贩峰赋峰赴赴赴贮洚齄撤獍赴锋峰副峰蜂蜂峰贡阜枫锋烦跺靛岚}..|.sn^.
    37c0:	be 49 9d c5 23 67 6c 4c f2 ae 5d 98 6b 6d 46 49     .I..#glL..].kmFI
    37d0:	b0 bf d6 5a 33 ce 28 1d ff 82 67 cd 7d 66 4a 59     ...Z3.(...g.}fJY
    37e0:	b6 93 6b 88 9a 83 5b 79 8f 7a 81 84 7e 80 7f 80     ..k...[y.z.....
    37f0:	80 7f 7e 81 80 80 7f 7e 8a 7b 73 81 84 88 71 97     .......{s...q.
    3800:	9a 25 87 d0 56 97 80 39 bb 80 50 a9 92 8f 58 47     .%..V..9..P...XG
    3810:	9a a4 ba 4d 38 de 4f 41 ff 6b 3f a5 76 7f 74 77     ...M8.OA.k?.v.tw
    3820:	b5 7d 51 78 9a 8f 6a 7f 8d 76 7e 83 7f 80 80 80     .}Qx..j..v.....
    3830:	80 7f 7e 80 7e 7d 7f 81 8f 83 77 7c 77 78 6a 9c     ...}....w|wxj.
    3840:	ab 45 95 c4 40 74 69 42 d2 a8 73 a8 75 62 38 44     .E..@tiB..s.ub8D
    3850:	b0 cb db 5f 2d af 2e 36 ff 8c 65 b3 71 69 5c 69     ..._-..6..e.qi\i
    3860:	b1 8a 65 83 98 87 64 7a 8b 79 81 84 7f 80 7f 80     ..e...dz.y......
    3870:	80 7f 7f 82 7e 7d 81 7f 83 78 7f 8a 78 81 76 8f     ....}...x..x.v.
    3880:	8f 41 ae ad 13 b3 bc 23 9a 9e 6b 83 67 a4 7f 5a     .A.....#..k.g..Z
    3890:	98 7c 96 5f 62 e7 3b 44 ff 49 46 ce 6b 6b 8c 7e     .|._b.;D.IF.kk.
    38a0:	8b 70 80 8b 79 80 7b 85 83 76 84 82 7c 80 80 80     .p..y.{..v..|...
    38b0:	80 7f 7f 81 7d 7b 80 82 8a 81 83 83 6a 70 6f 94     ....}{......jpo.
    38c0:	a3 61 ba a3 02 8b 9e 2e b6 c6 8d 85 4c 72 59 55     .a..........LrYU
    38d0:	b0 ab bd 70 52 b4 19 38 ff 6f 6e d9 67 55 70 6e     ...pR..8.on.gUpn
    38e0:	8b 80 91 95 7a 79 73 7e 82 79 87 84 7d 80 80 80     ....zys.y..}...
    38f0:	80 7f 7f 81 7e 7e 83 82 84 77 7a 85 7b 88 7f 8d     ....~...wz.{...
    3900:	84 3e a3 af 33 b6 ae 1e 86 99 7f 97 72 92 69 52     .>..3.......r.iR
    3910:	9c 92 a4 64 55 c4 3e 58 ff 5b 49 b4 62 6e 95 89     ...dU.>X.[I.bn..
    3920:	8d 6d 77 85 7c 85 7f 84 80 75 83 82 7d 80 80 80     .mw.|....u..}...
    3930:	80 7f 7f 80 7c 7c 82 84 89 7f 7e 7f 6f 7a 78 92     ....||.....ozx.
    3940:	96 5a ae a6 21 92 95 29 a0 bd 9b 97 59 68 49 4e     .Z..!..)....YhIN
    3950:	b0 b9 c5 72 48 9a 21 4c ff 7b 6c bf 5f 5b 7c 7b     ...rH.!L.{l._[|{
    3960:	8d 7b 87 8f 7d 7f 78 7e 7f 78 85 84 7e 80 80 80     .{..}.x.x.....
    3970:	80 7f 7e 82 7f 7f 82 7c 82 7c 85 88 6d 7f 81 9a     ......|.|..m...
    3980:	88 27 ba c9 08 a8 b4 20 b8 a3 4c 75 79 c4 76 35     .'..... ..Luy.v5
    3990:	97 97 ad 48 42 fb 4b 44 ff 2d 47 f1 69 56 85 88     ...HB.KD.-G.iV..
    39a0:	99 6a 74 8b 7f 85 77 81 84 77 86 82 7b 80 80 80     .jt...w..w..{...
    39b0:	80 7f 7f 81 7d 7c 80 7f 89 85 88 81 61 6e 77 9d     ....}|......anw.
    39c0:	9d 52 c0 b6 00 7b 91 33 cf cb 77 7a 5b 86 4f 39     .R...{.3..wz[.O9
    39d0:	ae c4 d1 61 38 ba 29 3b f6 5f 75 f0 67 44 67 76     ...a8.);._u.gDgv
    39e0:	96 7d 89 95 80 7d 6f 7b 82 7b 88 83 7c 80 80 80     .}...}o{.{..|...
    39f0:	80 7f 7e 81 7e 7f 83 7f 83 7a 7e 83 72 88 89 96     .......z.r...
    3a00:	7c 28 ab c7 2e ad a5 1c 9d 9d 68 8e 82 aa 5e 33     |(........h...^3
    3a10:	9b ac b9 51 39 d0 4d 5b ff 47 4a cc 5f 5d 90 93     ...Q9.M[.GJ._]..
    3a20:	99 68 6d 84 81 8a 7d 81 81 76 84 82 7c 80 80 80     .hm...}..v..|...
    3a30:	80 7f 7f 80 7c 7d 82 82 89 82 82 7d 66 78 80 9a     ....|}.....}fx..
    3a40:	91 49 b6 ba 1b 86 8a 27 b8 c4 89 8f 65 78 3c 31     .I.....'....ex<1
    3a50:	b1 d5 dc 63 2c a0 2a 4d ff 6c 71 d7 5c 49 74 82     ...c,.*M.lq.\It.
    3a60:	98 78 80 8f 82 82 74 7b 80 79 87 83 7d 80 80 80     .x....t{.y..}...
    3a70:	80 7f 7e 82 80 7c 7f 83 86 73 7d 93 79 73 7a 9e     ....|...s}.ysz.
    3a80:	85 35 b8 ba 08 a0 d2 34 77 9b 90 79 48 b3 9e 44     .5.....4w..yH..D
    3a90:	7e 9d a3 3f 5e ff 40 29 fc 6a 3d b1 80 7b 78 77     ..?^.@).j=..{xw
    3aa0:	9b 74 72 8c 83 7d 75 87 86 74 82 83 7d 80 80 80     .tr..}u..t..}...
    3ab0:	80 7f 7f 81 7e 7b 7e 85 8b 7b 80 8c 6e 66 73 a0     ....铈螽翅惆狗档怄徜鞍蜂獬窗共怃後蜂车复饭创债喇诞翅浒勾惚愠荡挡沣驳驳娣腹冻忖丰斗恫夺砸ゥ惝玮翅灏构覆赋勾复贩舵副复犯傅复蜂赴赴赴黠翅姘赴锋锋副锋蜂赴傅付凡犯镐枫封覆光蝤斥鞍枫巢徨忖驳岫愦层豆垢瑰镐荡岜付冲伯ギ楫援斥卑复徜獍炊挡溴幢冲骀范虫瑰反封覆覆埔辆隹酐斥舶光钒垛付傅覆丰阜赋反覆赋蜂赴赴赴痣舢斥嘲赴锋锋副峰封赴阜糕饭枫父繁舵封瑰耧斥窗稿翠夥獠倍付徕车赋夤舛稿虫犯抖炽彤诞盔婕斥蛋构沔沐刀炊舛驳车骀共侗後钒陡朵返制サ岙痂眭斥栋贯蜂封告傅枫烦副覆贩复复峰赴赴赴螽鳟斥钒赴锋峰覆赴峰锋赴复范副拱凡凡赋岽霎蝌斥赴峰测忉愀卑贡愠虫羔贯封舵倒愕苟插慨镔斥拱饭獗獗吵粹骀刀吵遽点炊惚副朵繁锋乘殖芷眈斥岚岽繁豆羔腹副烦复付范赋赋枫赴赴赴耖螽霎斥獍赴锋峰副峰枫峰赋羔峰复羔抖洞封岱驿斥惆贡垂愦怃鞍舵岣炊岬怄垢烦幢苟凡层僧锂飘罅颥斥浒贡浞涑炊充浔车哺邃蜂豆沣封倒滇繁平胆楫仝斥灏岵锋封钩腹丰躲峰傅饭傅复蜂赴赴赴忐斥姘赴锋峰副锋峰赴覆付反枫镐反丰糕岬酎酊炽鞍反便舛洳辨广忮测丰光搞复栋夤锋卞舢喈炽卑赴愀愕巢撤邃村充骀抖虫獠反朵枫糕卜谓婵繇炽舶岣垛栋傅糕付贩复复反赋赋蜂赴赴赴豚鳟舢炽嘲赴锋峰赴峰枫赴傅糕枫锋付陡躲赋岣桁炽窗父充惆愣板饭岢车苟怄峁付捶腹点辨疆诞钱墚炽蛋垢邈宕吹层忮插吵骀阜洞忮钒倒洞枫努钞洚鹳潼炽栋岫丰烦告糕锋舵峰赋贩傅复蜂赴赴赴螽稔鳟炽钒赴锋锋副赴峰峰锋阜丰犯阜复赴夺搞戤炽赴逛村拱岢床岣沟撤獗狗蛋覆镐广靛恫萎庐樊挟掴炽拱獯蜂钒抖父浔层当骀档彻怃付舵贩峰疰旬展秣炽岚垢烦烦腹赋赴范赋付犯副覆峰赴赴赴篌霎炽獍赴锋锋副峰枫峰覆搞副封覆犯烦兜拱箦炽惆徙斗光广潮父赴冲愣飧跺复反返床典绠碑井町趱螺炽浒愕岵共烦犯峁辈炊骀烦碘惴赴靛恫凡篪飘筵掴炽灏狗赴覆贡复丰舵峰傅丰赋赋峰赴锋赴稔炽姘赴锋锋副锋峰赴副阜饭返复傅阜烦羔醍螽充鞍共瘁羔岫刀徕稿潮规勾洞共贡稿蛋碘十之碑洚雄充卑獯告赴豆饭夥嘲垫骀恫冲後封繁赴阜轾斑饩癞充舶垢钒跺复复复丰赋复贩副覆峰赴赴赴痤鳟充嘲赴锋锋赴峰枫锋赋搞锋犯锋封封跺稿町充窗岚侗沟规吹告封掣獠獠蜂钩丰躲掣捣岙女府旄充蛋悴徨瑰返躲苟惫档骀枫碘獯贩侗朵枫蹯债郛麽睃充栋狗枫枫搞傅锋反锋赋饭赋赋锋赴锋赴舢充钒赴锋峰副赴锋峰枫阜蜂封付蜂锋繁勾癞充赴构炽沟夥虫瑰羔撤汊贯扯犯规獬党捶籍慨樊而忧充拱舛共蜂档返滗扯挡骀幢掣涞阜栋舵付挣兑粮囡充岚岽舵豆父腹复凡副阜饭覆副蜂赴赴赴镩虍充獍赴锋峰副锋蜂蜂锋镐复锋副繁繁垛垢耨氘充惆後倒岜徜层枫烦窗灏忮倒封覆傅车创佼罄冫的充浒愎夤岵抖洞獍惫炊骀洞典溴副翠蹈犯驿飘漭拓充灏岵峰封贡腹蜂躲封付枫复赋蜂赴赴赴禧充姘赴锋峰副赴锋锋锋阜封贩覆锋阜丰贡鳟冲鞍镐翅稿飧刀岢复潮獬狗存糕岜岜吹闯寒之碑袭琶冲卑獾岵镐碘抖怄翅冻骀党充忏封洞丰告坻恒咏潸冲舶岵朵兜赋羔父贩赴复犯副副峰赴赴赴礤鳟冲嘲赴锋峰赴峰蜂锋覆搞副丰蜂反饭烦沟....z}tys.
    3e40:	9d 54 99 af 44 85 70 39 c7 b7 6c 8c 87 7a 2b 40     .T..D.p9..l..z+@
    3e50:	c5 c4 ad 69 59 9a 20 57 ff 70 5d c6 77 53 65 82     ...iY. W.p].wSe.
    3e60:	a1 79 75 8c 8a 82 71 7c 83 7a 83 83 7e 80 80 80     .yu...q|.z.....
    3e70:	80 7f 7e 82 81 7d 7c 82 89 75 76 8f 84 75 6e 99     ....}|..uv..un.
    3e80:	94 43 9b af 34 9a aa 42 93 96 70 7a 70 a9 7a 4f     .C..4..B..pzp.zO
    3e90:	9d 97 7e 4b 82 e8 2f 39 ff 6e 31 a8 94 7c 68 78     ..K../9.n1..|hx
    3ea0:	a4 76 69 89 8b 7d 71 86 88 76 80 83 7e 80 80 80     .vi..}q..v.....
    3eb0:	80 7f 7e 81 7f 7b 7c 84 8e 7c 79 8a 79 6a 69 9c     ....{|..|y.yji.
    3ec0:	a3 5b a5 a7 25 7d 95 48 a9 b5 8a 7d 5b 83 5d 4b     .[..%}.H...}[.]K
    3ed0:	ae b8 9d 59 73 c2 17 31 ff 88 51 b3 8e 6a 55 6d     ...Ys..1..Q..jUm
    3ee0:	a3 81 78 91 8b 78 6c 81 87 79 82 84 7e 80 7f 80     ..x..xl..y.....
    3ef0:	80 7f 7e 81 80 7d 7e 84 89 74 73 8b 85 7c 76 96     ....}..ts..|v.
    3f00:	8b 40 95 b0 49 9f a1 3b 85 93 7f 8b 77 9b 69 4a     .@..I..;....w.iJ
    3f10:	9f a5 8c 51 74 cd 33 4a ff 78 36 98 89 7c 72 82     ...Qt.3J.x6..|r.
    3f20:	a3 73 65 85 8b 81 76 85 86 76 80 83 7e 80 80 80     .se...v..v.....
    3f30:	80 7f 7f 80 7f 7c 7d 85 8d 7a 76 86 7b 71 71 99     .....|}..zv.{qq.
    3f40:	99 56 9e a9 3a 85 8f 41 99 af 95 8c 63 79 50 47     .V..:..A....cyPG
    3f50:	ae c2 a7 5d 68 ac 1d 41 ff 8f 52 a3 84 6c 61 77     ...]h..A..R..law
    3f60:	a1 7d 73 8c 8b 7d 70 81 85 78 82 84 7f 80 7f 80     .}s..}p..x......
    3f70:	80 7f 7e 81 82 7e 7c 80 89 77 79 8f 7e 73 75 a2     ....|..wy.su.
    3f80:	90 31 a1 c3 30 90 a3 43 a8 98 5b 70 7d c0 72 33     .1..0..C..[p}.r3
    3f90:	9c ae 8c 38 6f f7 39 38 ff 5e 2f bc 97 6e 5f 7f     ...8o.98.^/..n_.
    3fa0:	b1 72 5e 89 92 81 6e 84 8a 77 81 82 7d 80 80 80     .r^...n..w..}...
    3fb0:	80 7f 7e 81 80 7c 7b 82 8e 7e 7c 89 72 66 6e a5     ....|{..|.rfn.
    3fc0:	a0 4d ab b8 1f 71 8c 4a be ba 79 74 65 94 53 32     .M...q.J..yte.S2
    3fd0:	b0 d0 ad 4a 60 cb 1d 2f ff 7d 53 c6 91 5c 4b 72     ...J`../.}S..\Kr
    3fe0:	af 7f 6f 91 91 7b 68 7e 88 7a 83 83 7e 80 80 80     ..o..{h.z.....
    3ff0:	80 7f 7e 81 81 7e 7e 82 89 76 76 8a 80 7b 7c 9d     ....~..vv..{|.
    4000:	86 30 99 c2 47 96 9a 3c 96 95 6e 83 83 ad 61 32     .0..G..<..n...a2
    4010:	9f ba 99 41 63 d7 3d 4a ff 6b 35 a8 8a 71 6b 89     ...Ac.=J.k5..qk.
    4020:	ae 6f 5b 84 91 85 73 83 87 77 80 82 7e 80 80 80     .o[...s..w.....
    4030:	80 7f 7e 80 7f 7c 7d 84 8d 7c 79 85 75 6f 76 a0     ....|}..|y.uov.
    4040:	95 49 a3 b9 37 7a 86 42 aa b4 87 85 6d 87 47 30     .I..7z.B....m.G0
    4050:	af d8 b6 50 56 b3 24 41 ff 85 54 b2 85 60 59 7c     ...PV.$A..T..`Y|
    4060:	ac 7b 6b 8c 90 7f 6d 7f 85 79 82 83 7e 80 80 80     .{k...m..y.....

00004070 <__ctors_end>:
    4070:	11 24       	eor	r1, r1
    4072:	1f be       	out	0x3f, r1	; 63
    4074:	cf ef       	ldi	r28, 0xFF	; 255
    4076:	d0 e1       	ldi	r29, 0x10	; 16
    4078:	de bf       	out	0x3e, r29	; 62
    407a:	cd bf       	out	0x3d, r28	; 61

0000407c <__do_copy_data>:
    407c:	11 e0       	ldi	r17, 0x01	; 1
    407e:	a0 e0       	ldi	r26, 0x00	; 0
    4080:	b1 e0       	ldi	r27, 0x01	; 1
    4082:	e2 e2       	ldi	r30, 0x22	; 34
    4084:	f6 e5       	ldi	r31, 0x56	; 86
    4086:	02 c0       	rjmp	.+4      	; 0x408c <.do_copy_data_start>

00004088 <.do_copy_data_loop>:
    4088:	05 90       	lpm	r0, Z+
    408a:	0d 92       	st	X+, r0

0000408c <.do_copy_data_start>:
    408c:	a2 33       	cpi	r26, 0x32	; 50
    408e:	b1 07       	cpc	r27, r17
    4090:	d9 f7       	brne	.-10     	; 0x4088 <.do_copy_data_loop>

00004092 <__do_clear_bss>:
    4092:	1a e0       	ldi	r17, 0x0A	; 10
    4094:	a2 e3       	ldi	r26, 0x32	; 50
    4096:	b1 e0       	ldi	r27, 0x01	; 1
    4098:	01 c0       	rjmp	.+2      	; 0x409c <.do_clear_bss_start>

0000409a <.do_clear_bss_loop>:
    409a:	1d 92       	st	X+, r1

0000409c <.do_clear_bss_start>:
    409c:	ab 31       	cpi	r26, 0x1B	; 27
    409e:	b1 07       	cpc	r27, r17
    40a0:	e1 f7       	brne	.-8      	; 0x409a <.do_clear_bss_loop>
    40a2:	0e 94 66 23 	call	0x46cc	; 0x46cc <main>
    40a6:	0c 94 0f 2b 	jmp	0x561e	; 0x561e <_exit>

000040aa <__bad_interrupt>:
    40aa:	0c 94 00 00 	jmp	0	; 0x0 <__vectors>

000040ae <__vector_14>:
		memcpy_P(freqCache, freqTable[output_bitpattern], sizeof(uint8_t) * 64);
	}
}

ISR(TIMER1_COMPB_vect, ISR_NAKED) {
	sei();
    40ae:	78 94       	sei
	sleep_cpu();
    40b0:	88 95       	sleep
	reti();
    40b2:	18 95       	reti

000040b4 <clear>:
		}
	}
	
}

void clear(struct recv_param_t *this_param) {
    40b4:	0f 93       	push	r16
    40b6:	1f 93       	push	r17
    40b8:	8c 01       	movw	r16, r24
	this_param->sin_acc = this_param->cos_acc = this_param->sin_shift_acc = this_param->cos_shift_acc = 0;
    40ba:	fc 01       	movw	r30, r24
    40bc:	14 8a       	std	Z+20, r1	; 0x14
    40be:	13 8a       	std	Z+19, r1	; 0x13
    40c0:	12 8a       	std	Z+18, r1	; 0x12
    40c2:	11 8a       	std	Z+17, r1	; 0x11
    40c4:	10 8a       	std	Z+16, r1	; 0x10
    40c6:	17 86       	std	Z+15, r1	; 0x0f
    40c8:	16 86       	std	Z+14, r1	; 0x0e
    40ca:	15 86       	std	Z+13, r1	; 0x0d
	memset(this_param->resample_buffer_sin, 0, this_param->resample_buffer_size);
    40cc:	43 8d       	ldd	r20, Z+27	; 0x1b
    40ce:	80 81       	ld	r24, Z
    40d0:	91 81       	ldd	r25, Z+1	; 0x01
    40d2:	60 e0       	ldi	r22, 0x00	; 0
    40d4:	70 e0       	ldi	r23, 0x00	; 0
    40d6:	50 e0       	ldi	r21, 0x00	; 0
    40d8:	0e 94 8c 2a 	call	0x5518	; 0x5518 <memset>
	memset(this_param->resample_buffer_cos, 0, this_param->resample_buffer_size);
    40dc:	f8 01       	movw	r30, r16
    40de:	43 8d       	ldd	r20, Z+27	; 0x1b
    40e0:	82 81       	ldd	r24, Z+2	; 0x02
    40e2:	93 81       	ldd	r25, Z+3	; 0x03
    40e4:	60 e0       	ldi	r22, 0x00	; 0
    40e6:	70 e0       	ldi	r23, 0x00	; 0
    40e8:	50 e0       	ldi	r21, 0x00	; 0
    40ea:	0e 94 8c 2a 	call	0x5518	; 0x5518 <memset>
	memset(this_param->resample_buffer_sin_shift, 0, this_param->resample_buffer_size);
    40ee:	f8 01       	movw	r30, r16
    40f0:	43 8d       	ldd	r20, Z+27	; 0x1b
    40f2:	84 81       	ldd	r24, Z+4	; 0x04
    40f4:	95 81       	ldd	r25, Z+5	; 0x05
    40f6:	60 e0       	ldi	r22, 0x00	; 0
    40f8:	70 e0       	ldi	r23, 0x00	; 0
    40fa:	50 e0       	ldi	r21, 0x00	; 0
    40fc:	0e 94 8c 2a 	call	0x5518	; 0x5518 <memset>
	memset(this_param->resample_buffer_cos_shift, 0, this_param->resample_buffer_size);
    4100:	f8 01       	movw	r30, r16
    4102:	43 8d       	ldd	r20, Z+27	; 0x1b
    4104:	86 81       	ldd	r24, Z+6	; 0x06
    4106:	97 81       	ldd	r25, Z+7	; 0x07
    4108:	60 e0       	ldi	r22, 0x00	; 0
    410a:	70 e0       	ldi	r23, 0x00	; 0
    410c:	50 e0       	ldi	r21, 0x00	; 0
    410e:	0e 94 8c 2a 	call	0x5518	; 0x5518 <memset>
}
    4112:	1f 91       	pop	r17
    4114:	0f 91       	pop	r16
    4116:	08 95       	ret

00004118 <find_freq>:
			find_freq(recv_params + i);
		}
	}
}

void find_freq(struct recv_param_t* this_param) {
    4118:	2f 92       	push	r2
    411a:	3f 92       	push	r3
    411c:	4f 92       	push	r4
    411e:	5f 92       	push	r5
    4120:	6f 92       	push	r6
    4122:	7f 92       	push	r7
    4124:	8f 92       	push	r8
    4126:	9f 92       	push	r9
    4128:	af 92       	push	r10
    412a:	bf 92       	push	r11
    412c:	cf 92       	push	r12
    412e:	df 92       	push	r13
    4130:	ef 92       	push	r14
    4132:	ff 92       	push	r15
    4134:	0f 93       	push	r16
    4136:	1f 93       	push	r17
    4138:	cf 93       	push	r28
    413a:	df 93       	push	r29
    413c:	ec 01       	movw	r28, r24
	int8_t input_sample = 0;
	int32_t sin_squared=0, cos_squared=0, sum_squares = 0, shift_sum_squares = 0, analyze_output = 0;
	uint8_t x = fix2int(this_param->input_buffer_resample_position + this_param->input_buffer_3_8phase);
    413e:	8a a1       	ldd	r24, Y+34	; 0x22
    4140:	9b a1       	ldd	r25, Y+35	; 0x23
    4142:	29 8d       	ldd	r18, Y+25	; 0x19
    4144:	3a 8d       	ldd	r19, Y+26	; 0x1a
    4146:	82 0f       	add	r24, r18
    4148:	93 1f       	adc	r25, r19
    414a:	29 2f       	mov	r18, r25
    414c:	26 95       	lsr	r18
    414e:	26 95       	lsr	r18
	
	if((x <= public_input_buffer_position && public_input_buffer_position - x <= 20) ||
    4150:	80 91 44 01 	lds	r24, 0x0144
    4154:	82 17       	cp	r24, r18
    4156:	48 f0       	brcs	.+18     	; 0x416a <find_freq+0x52>
    4158:	80 91 44 01 	lds	r24, 0x0144
    415c:	62 2f       	mov	r22, r18
    415e:	70 e0       	ldi	r23, 0x00	; 0
    4160:	90 e0       	ldi	r25, 0x00	; 0
    4162:	86 1b       	sub	r24, r22
    4164:	97 0b       	sbc	r25, r23
    4166:	45 97       	sbiw	r24, 0x15	; 21
    4168:	84 f0       	brlt	.+32     	; 0x418a <find_freq+0x72>
    416a:	80 91 44 01 	lds	r24, 0x0144
    416e:	82 17       	cp	r24, r18
    4170:	08 f0       	brcs	.+2      	; 0x4174 <find_freq+0x5c>
    4172:	1b c1       	rjmp	.+566    	; 0x43aa <find_freq+0x292>
    4174:	62 2f       	mov	r22, r18
    4176:	70 e0       	ldi	r23, 0x00	; 0
    4178:	80 91 44 01 	lds	r24, 0x0144
    417c:	7b 01       	movw	r14, r22
    417e:	e8 1a       	sub	r14, r24
    4180:	f1 08       	sbc	r15, r1
    4182:	c7 01       	movw	r24, r14
    4184:	45 97       	sbiw	r24, 0x15	; 21
    4186:	0c f4       	brge	.+2      	; 0x418a <find_freq+0x72>
    4188:	10 c1       	rjmp	.+544    	; 0x43aa <find_freq+0x292>
	   (x > public_input_buffer_position && x - public_input_buffer_position > 20)) {
		// Sine component calculations
		this_param->sin_acc -= this_param->resample_buffer_sin[this_param->resample_buffer_position];
    418a:	88 85       	ldd	r24, Y+8	; 0x08
    418c:	a8 81       	ld	r26, Y
    418e:	b9 81       	ldd	r27, Y+1	; 0x01
    4190:	a8 0f       	add	r26, r24
    4192:	b1 1d       	adc	r27, r1
    4194:	8c 91       	ld	r24, X
    4196:	99 27       	eor	r25, r25
    4198:	87 fd       	sbrc	r24, 7
    419a:	90 95       	com	r25
    419c:	2d 85       	ldd	r18, Y+13	; 0x0d
    419e:	3e 85       	ldd	r19, Y+14	; 0x0e
    41a0:	28 1b       	sub	r18, r24
    41a2:	39 0b       	sbc	r19, r25
    41a4:	3e 87       	std	Y+14, r19	; 0x0e
    41a6:	2d 87       	std	Y+13, r18	; 0x0d
		input_sample = input_buffer[fix2int(this_param->input_buffer_resample_position)];
    41a8:	ea 8d       	ldd	r30, Y+26	; 0x1a
    41aa:	e6 95       	lsr	r30
    41ac:	e6 95       	lsr	r30
    41ae:	f0 e0       	ldi	r31, 0x00	; 0
    41b0:	eb 5b       	subi	r30, 0xBB	; 187
    41b2:	fe 4f       	sbci	r31, 0xFE	; 254
    41b4:	40 81       	ld	r20, Z
		this_param->sin_acc += input_sample;
    41b6:	84 2f       	mov	r24, r20
    41b8:	99 27       	eor	r25, r25
    41ba:	87 fd       	sbrc	r24, 7
    41bc:	90 95       	com	r25
    41be:	82 0f       	add	r24, r18
    41c0:	93 1f       	adc	r25, r19
    41c2:	9e 87       	std	Y+14, r25	; 0x0e
    41c4:	8d 87       	std	Y+13, r24	; 0x0d
		this_param->resample_buffer_sin[this_param->resample_buffer_position] = input_sample;
    41c6:	4c 93       	st	X, r20
				}*/
			}
		#endif

		// Cosine component calculations
		this_param->cos_acc -= this_param->resample_buffer_cos[this_param->resample_buffer_position];
    41c8:	88 85       	ldd	r24, Y+8	; 0x08
    41ca:	aa 81       	ldd	r26, Y+2	; 0x02
    41cc:	bb 81       	ldd	r27, Y+3	; 0x03
    41ce:	a8 0f       	add	r26, r24
    41d0:	b1 1d       	adc	r27, r1
    41d2:	8c 91       	ld	r24, X
    41d4:	99 27       	eor	r25, r25
    41d6:	87 fd       	sbrc	r24, 7
    41d8:	90 95       	com	r25
    41da:	4f 85       	ldd	r20, Y+15	; 0x0f
    41dc:	58 89       	ldd	r21, Y+16	; 0x10
    41de:	48 1b       	sub	r20, r24
    41e0:	59 0b       	sbc	r21, r25
    41e2:	58 8b       	std	Y+16, r21	; 0x10
    41e4:	4f 87       	std	Y+15, r20	; 0x0f
		input_sample = input_buffer[fix2int(this_param->input_buffer_resample_position + this_param->input_buffer_1_4phase)];
    41e6:	88 a1       	ldd	r24, Y+32	; 0x20
    41e8:	99 a1       	ldd	r25, Y+33	; 0x21
    41ea:	29 8d       	ldd	r18, Y+25	; 0x19
    41ec:	3a 8d       	ldd	r19, Y+26	; 0x1a
    41ee:	82 0f       	add	r24, r18
    41f0:	93 1f       	adc	r25, r19
    41f2:	e9 2f       	mov	r30, r25
    41f4:	e6 95       	lsr	r30
    41f6:	e6 95       	lsr	r30
    41f8:	f0 e0       	ldi	r31, 0x00	; 0
    41fa:	eb 5b       	subi	r30, 0xBB	; 187
    41fc:	fe 4f       	sbci	r31, 0xFE	; 254
    41fe:	20 81       	ld	r18, Z
		this_param->cos_acc += input_sample;
    4200:	82 2f       	mov	r24, r18
    4202:	99 27       	eor	r25, r25
    4204:	87 fd       	sbrc	r24, 7
    4206:	90 95       	com	r25
    4208:	84 0f       	add	r24, r20
    420a:	95 1f       	adc	r25, r21
    420c:	98 8b       	std	Y+16, r25	; 0x10
    420e:	8f 87       	std	Y+15, r24	; 0x0f
		this_param->resample_buffer_cos[this_param->resample_buffer_position] = input_sample;
    4210:	2c 93       	st	X, r18
		
		this_param->sin_shift_acc -= this_param->resample_buffer_sin_shift[this_param->resample_buffer_position];
    4212:	88 85       	ldd	r24, Y+8	; 0x08
    4214:	ac 81       	ldd	r26, Y+4	; 0x04
    4216:	bd 81       	ldd	r27, Y+5	; 0x05
    4218:	a8 0f       	add	r26, r24
    421a:	b1 1d       	adc	r27, r1
    421c:	8c 91       	ld	r24, X
    421e:	99 27       	eor	r25, r25
    4220:	87 fd       	sbrc	r24, 7
    4222:	90 95       	com	r25
    4224:	49 89       	ldd	r20, Y+17	; 0x11
    4226:	5a 89       	ldd	r21, Y+18	; 0x12
    4228:	48 1b       	sub	r20, r24
    422a:	59 0b       	sbc	r21, r25
    422c:	5a 8b       	std	Y+18, r21	; 0x12
    422e:	49 8b       	std	Y+17, r20	; 0x11
		input_sample = input_buffer[fix2int(this_param->input_buffer_resample_position + this_param->input_buffer_1_8phase)];
    4230:	8e 8d       	ldd	r24, Y+30	; 0x1e
    4232:	9f 8d       	ldd	r25, Y+31	; 0x1f
    4234:	29 8d       	ldd	r18, Y+25	; 0x19
    4236:	3a 8d       	ldd	r19, Y+26	; 0x1a
    4238:	82 0f       	add	r24, r18
    423a:	93 1f       	adc	r25, r19
    423c:	e9 2f       	mov	r30, r25
    423e:	e6 95       	lsr	r30
    4240:	e6 95       	lsr	r30
    4242:	f0 e0       	ldi	r31, 0x00	; 0
    4244:	eb 5b       	subi	r30, 0xBB	; 187
    4246:	fe 4f       	sbci	r31, 0xFE	; 254
    4248:	20 81       	ld	r18, Z
		this_param->sin_shift_acc += input_sample;
    424a:	82 2f       	mov	r24, r18
    424c:	99 27       	eor	r25, r25
    424e:	87 fd       	sbrc	r24, 7
    4250:	90 95       	com	r25
    4252:	84 0f       	add	r24, r20
    4254:	95 1f       	adc	r25, r21
    4256:	9a 8b       	std	Y+18, r25	; 0x12
    4258:	89 8b       	std	Y+17, r24	; 0x11
		this_param->resample_buffer_sin_shift[this_param->resample_buffer_position] = input_sample;
    425a:	2c 93       	st	X, r18

		this_param->cos_shift_acc -= this_param->resample_buffer_cos_shift[this_param->resample_buffer_position];
    425c:	88 85       	ldd	r24, Y+8	; 0x08
    425e:	ee 81       	ldd	r30, Y+6	; 0x06
    4260:	ff 81       	ldd	r31, Y+7	; 0x07
    4262:	e8 0f       	add	r30, r24
    4264:	f1 1d       	adc	r31, r1
    4266:	80 81       	ld	r24, Z
    4268:	99 27       	eor	r25, r25
    426a:	87 fd       	sbrc	r24, 7
    426c:	90 95       	com	r25
    426e:	2b 89       	ldd	r18, Y+19	; 0x13
    4270:	3c 89       	ldd	r19, Y+20	; 0x14
    4272:	28 1b       	sub	r18, r24
    4274:	39 0b       	sbc	r19, r25
    4276:	3c 8b       	std	Y+20, r19	; 0x14
    4278:	2b 8b       	std	Y+19, r18	; 0x13
		input_sample = input_buffer[x];
    427a:	6b 5b       	subi	r22, 0xBB	; 187
    427c:	7e 4f       	sbci	r23, 0xFE	; 254
    427e:	db 01       	movw	r26, r22
    4280:	4c 91       	ld	r20, X
		this_param->cos_shift_acc += input_sample;
    4282:	84 2f       	mov	r24, r20
    4284:	99 27       	eor	r25, r25
    4286:	87 fd       	sbrc	r24, 7
    4288:	90 95       	com	r25
    428a:	82 0f       	add	r24, r18
    428c:	93 1f       	adc	r25, r19
    428e:	9c 8b       	std	Y+20, r25	; 0x14
    4290:	8b 8b       	std	Y+19, r24	; 0x13
		this_param->resample_buffer_cos_shift[this_param->resample_buffer_position] = input_sample;
    4292:	40 83       	st	Z, r20
			}*/
		#endif

		// Thresholding if we're at the end of a time division or searching for a start bit
		//if(this_param->start == 0 || (this_param->resample_buffer_position >= (this_param->resample_buffer_size - 1))) {
			sin_squared = ((int32_t)this_param->sin_acc * (int32_t)this_param->sin_acc);
    4294:	6d 84       	ldd	r6, Y+13	; 0x0d
    4296:	7e 84       	ldd	r7, Y+14	; 0x0e
    4298:	88 24       	eor	r8, r8
    429a:	77 fc       	sbrc	r7, 7
    429c:	80 94       	com	r8
    429e:	98 2c       	mov	r9, r8
			cos_squared = ((int32_t)this_param->cos_acc * (int32_t)this_param->cos_acc);
    42a0:	af 84       	ldd	r10, Y+15	; 0x0f
    42a2:	b8 88       	ldd	r11, Y+16	; 0x10
    42a4:	cc 24       	eor	r12, r12
    42a6:	b7 fc       	sbrc	r11, 7
    42a8:	c0 94       	com	r12
    42aa:	dc 2c       	mov	r13, r12
			sum_squares = sin_squared + cos_squared;
			shift_sum_squares = ((int32_t)this_param->sin_shift_acc * (int32_t)this_param->sin_shift_acc) + ((int32_t)this_param->cos_shift_acc * (int32_t)this_param->cos_shift_acc);
    42ac:	e9 88       	ldd	r14, Y+17	; 0x11
    42ae:	fa 88       	ldd	r15, Y+18	; 0x12
    42b0:	00 27       	eor	r16, r16
    42b2:	f7 fc       	sbrc	r15, 7
    42b4:	00 95       	com	r16
    42b6:	10 2f       	mov	r17, r16
    42b8:	2b 89       	ldd	r18, Y+19	; 0x13
    42ba:	3c 89       	ldd	r19, Y+20	; 0x14
    42bc:	44 27       	eor	r20, r20
    42be:	37 fd       	sbrc	r19, 7
    42c0:	40 95       	com	r20
    42c2:	54 2f       	mov	r21, r20
			analyze_output = (sum_squares > shift_sum_squares ? sum_squares : shift_sum_squares);
    42c4:	ca 01       	movw	r24, r20
    42c6:	b9 01       	movw	r22, r18
    42c8:	0e 94 2d 2a 	call	0x545a	; 0x545a <__mulsi3>
    42cc:	1b 01       	movw	r2, r22
    42ce:	2c 01       	movw	r4, r24
    42d0:	c8 01       	movw	r24, r16
    42d2:	b7 01       	movw	r22, r14
    42d4:	a8 01       	movw	r20, r16
    42d6:	97 01       	movw	r18, r14
    42d8:	0e 94 2d 2a 	call	0x545a	; 0x545a <__mulsi3>
    42dc:	26 0e       	add	r2, r22
    42de:	37 1e       	adc	r3, r23
    42e0:	48 1e       	adc	r4, r24
    42e2:	59 1e       	adc	r5, r25
    42e4:	c6 01       	movw	r24, r12
    42e6:	b5 01       	movw	r22, r10
    42e8:	a6 01       	movw	r20, r12
    42ea:	95 01       	movw	r18, r10
    42ec:	0e 94 2d 2a 	call	0x545a	; 0x545a <__mulsi3>
    42f0:	7b 01       	movw	r14, r22
    42f2:	8c 01       	movw	r16, r24
    42f4:	c4 01       	movw	r24, r8
    42f6:	b3 01       	movw	r22, r6
    42f8:	a4 01       	movw	r20, r8
    42fa:	93 01       	movw	r18, r6
    42fc:	0e 94 2d 2a 	call	0x545a	; 0x545a <__mulsi3>
    4300:	e6 0e       	add	r14, r22
    4302:	f7 1e       	adc	r15, r23
    4304:	08 1f       	adc	r16, r24
    4306:	19 1f       	adc	r17, r25
    4308:	2e 14       	cp	r2, r14
    430a:	3f 04       	cpc	r3, r15
    430c:	40 06       	cpc	r4, r16
    430e:	51 06       	cpc	r5, r17
    4310:	14 f4       	brge	.+4      	; 0x4316 <find_freq+0x1fe>
    4312:	17 01       	movw	r2, r14
    4314:	28 01       	movw	r4, r16
		//}	
		
		if(analyze_output > this_param->thresh && this_param->start == 0) {
    4316:	2e a1       	ldd	r18, Y+38	; 0x26
    4318:	3f a1       	ldd	r19, Y+39	; 0x27
    431a:	48 a5       	ldd	r20, Y+40	; 0x28
    431c:	59 a5       	ldd	r21, Y+41	; 0x29
    431e:	22 15       	cp	r18, r2
    4320:	33 05       	cpc	r19, r3
    4322:	44 05       	cpc	r20, r4
    4324:	55 05       	cpc	r21, r5
    4326:	0c f4       	brge	.+2      	; 0x432a <find_freq+0x212>
    4328:	53 c0       	rjmp	.+166    	; 0x43d0 <find_freq+0x2b8>
    432a:	6c a1       	ldd	r22, Y+36	; 0x24
				PORTD &= _BV(PB3);
				return;
			}
		}
		
		this_param->prev_mag = analyze_output;
    432c:	2d 8a       	std	Y+21, r2	; 0x15
    432e:	3e 8a       	std	Y+22, r3	; 0x16
    4330:	4f 8a       	std	Y+23, r4	; 0x17
    4332:	58 8e       	std	Y+24, r5	; 0x18

		if(this_param->start) {
    4334:	66 23       	and	r22, r22
    4336:	79 f0       	breq	.+30     	; 0x4356 <find_freq+0x23e>
			if(this_param->prev_frame_position == 0) { 
    4338:	8b 85       	ldd	r24, Y+11	; 0x0b
    433a:	9c 85       	ldd	r25, Y+12	; 0x0c
    433c:	00 97       	sbiw	r24, 0x00	; 0
    433e:	09 f0       	breq	.+2      	; 0x4342 <find_freq+0x22a>
    4340:	82 c0       	rjmp	.+260    	; 0x4446 <find_freq+0x32e>
				if(analyze_output > this_param->thresh) { // This is the first time we're going above the threshold
    4342:	22 15       	cp	r18, r2
    4344:	33 05       	cpc	r19, r3
    4346:	44 05       	cpc	r20, r4
    4348:	55 05       	cpc	r21, r5
    434a:	2c f4       	brge	.+10     	; 0x4356 <find_freq+0x23e>
					this_param->prev_frame_position = this_param->frame_position;
    434c:	49 85       	ldd	r20, Y+9	; 0x09
    434e:	5a 85       	ldd	r21, Y+10	; 0x0a
    4350:	5c 87       	std	Y+12, r21	; 0x0c
    4352:	4b 87       	std	Y+11, r20	; 0x0b
    4354:	02 c0       	rjmp	.+4      	; 0x435a <find_freq+0x242>
    4356:	49 85       	ldd	r20, Y+9	; 0x09
    4358:	5a 85       	ldd	r21, Y+10	; 0x0a
					// PORTD |= _BV(PB3);
				// }
			// }
		// }
		
		this_param->input_buffer_resample_position += this_param->input_buffer_increment;
    435a:	89 8d       	ldd	r24, Y+25	; 0x19
    435c:	9a 8d       	ldd	r25, Y+26	; 0x1a
    435e:	2c 8d       	ldd	r18, Y+28	; 0x1c
    4360:	3d 8d       	ldd	r19, Y+29	; 0x1d
    4362:	82 0f       	add	r24, r18
    4364:	93 1f       	adc	r25, r19
    4366:	9a 8f       	std	Y+26, r25	; 0x1a
    4368:	89 8f       	std	Y+25, r24	; 0x19
		this_param->frame_position += fix2lfix(this_param->input_buffer_increment);
    436a:	32 95       	swap	r19
    436c:	22 95       	swap	r18
    436e:	2f 70       	andi	r18, 0x0F	; 15
    4370:	23 27       	eor	r18, r19
    4372:	3f 70       	andi	r19, 0x0F	; 15
    4374:	23 27       	eor	r18, r19
    4376:	24 0f       	add	r18, r20
    4378:	35 1f       	adc	r19, r21
    437a:	3a 87       	std	Y+10, r19	; 0x0a
    437c:	29 87       	std	Y+9, r18	; 0x09
		if(this_param->start && lfix2int(this_param->frame_position) >= 512) {
    437e:	66 23       	and	r22, r22
    4380:	a1 f0       	breq	.+40     	; 0x43aa <find_freq+0x292>
    4382:	00 24       	eor	r0, r0
    4384:	22 0f       	add	r18, r18
    4386:	33 1f       	adc	r19, r19
    4388:	00 1c       	adc	r0, r0
    438a:	22 0f       	add	r18, r18
    438c:	33 1f       	adc	r19, r19
    438e:	00 1c       	adc	r0, r0
    4390:	23 2f       	mov	r18, r19
    4392:	30 2d       	mov	r19, r0
    4394:	20 50       	subi	r18, 0x00	; 0
    4396:	32 40       	sbci	r19, 0x02	; 2
    4398:	40 f0       	brcs	.+16     	; 0x43aa <find_freq+0x292>
			UDR0 = this_param->output_char;
    439a:	8d a1       	ldd	r24, Y+37	; 0x25
    439c:	80 93 c6 00 	sts	0x00C6, r24
			PORTD |= _BV(PB3);
    43a0:	5b 9a       	sbi	0x0b, 3	; 11
			this_param->start = 0;
    43a2:	1c a2       	std	Y+36, r1	; 0x24
			clear(this_param);
    43a4:	ce 01       	movw	r24, r28
    43a6:	0e 94 5a 20 	call	0x40b4	; 0x40b4 <clear>
		}
	}
	
}
    43aa:	df 91       	pop	r29
    43ac:	cf 91       	pop	r28
    43ae:	1f 91       	pop	r17
    43b0:	0f 91       	pop	r16
    43b2:	ff 90       	pop	r15
    43b4:	ef 90       	pop	r14
    43b6:	df 90       	pop	r13
    43b8:	cf 90       	pop	r12
    43ba:	bf 90       	pop	r11
    43bc:	af 90       	pop	r10
    43be:	9f 90       	pop	r9
    43c0:	8f 90       	pop	r8
    43c2:	7f 90       	pop	r7
    43c4:	6f 90       	pop	r6
    43c6:	5f 90       	pop	r5
    43c8:	4f 90       	pop	r4
    43ca:	3f 90       	pop	r3
    43cc:	2f 90       	pop	r2
    43ce:	08 95       	ret
			sum_squares = sin_squared + cos_squared;
			shift_sum_squares = ((int32_t)this_param->sin_shift_acc * (int32_t)this_param->sin_shift_acc) + ((int32_t)this_param->cos_shift_acc * (int32_t)this_param->cos_shift_acc);
			analyze_output = (sum_squares > shift_sum_squares ? sum_squares : shift_sum_squares);
		//}	
		
		if(analyze_output > this_param->thresh && this_param->start == 0) {
    43d0:	6c a1       	ldd	r22, Y+36	; 0x24
    43d2:	66 23       	and	r22, r22
    43d4:	09 f0       	breq	.+2      	; 0x43d8 <find_freq+0x2c0>
    43d6:	aa cf       	rjmp	.-172    	; 0x432c <find_freq+0x214>
			if ((analyze_output - this_param->prev_mag) < (int32_t)-1000) {
    43d8:	8d 89       	ldd	r24, Y+21	; 0x15
    43da:	9e 89       	ldd	r25, Y+22	; 0x16
    43dc:	af 89       	ldd	r26, Y+23	; 0x17
    43de:	b8 8d       	ldd	r27, Y+24	; 0x18
    43e0:	82 01       	movw	r16, r4
    43e2:	71 01       	movw	r14, r2
    43e4:	e8 1a       	sub	r14, r24
    43e6:	f9 0a       	sbc	r15, r25
    43e8:	0a 0b       	sbc	r16, r26
    43ea:	1b 0b       	sbc	r17, r27
    43ec:	d8 01       	movw	r26, r16
    43ee:	c7 01       	movw	r24, r14
    43f0:	88 51       	subi	r24, 0x18	; 24
    43f2:	9c 4f       	sbci	r25, 0xFC	; 252
    43f4:	af 4f       	sbci	r26, 0xFF	; 255
    43f6:	bf 4f       	sbci	r27, 0xFF	; 255
    43f8:	0c f0       	brlt	.+2      	; 0x43fc <find_freq+0x2e4>
    43fa:	98 cf       	rjmp	.-208    	; 0x432c <find_freq+0x214>
				#if defined(DEBUG_DUMP) || defined(DEBUG_RS_DUMP)	//maybe TODO: fix debug
					if(offset_timer == 0) {
    43fc:	80 91 3f 01 	lds	r24, 0x013F
    4400:	90 91 40 01 	lds	r25, 0x0140
    4404:	89 2b       	or	r24, r25
    4406:	31 f4       	brne	.+12     	; 0x4414 <find_freq+0x2fc>
						offset_timer = 1;
    4408:	81 e0       	ldi	r24, 0x01	; 1
    440a:	90 e0       	ldi	r25, 0x00	; 0
    440c:	90 93 40 01 	sts	0x0140, r25
    4410:	80 93 3f 01 	sts	0x013F, r24
					}
				#endif
				this_param->start = 1;
    4414:	81 e0       	ldi	r24, 0x01	; 1
    4416:	8c a3       	std	Y+36, r24	; 0x24
				this_param->output_char = 0;
    4418:	1d a2       	std	Y+37, r1	; 0x25
				//this_param->input_buffer_resample_position += (this_param->input_buffer_increment >> 1);
				this_param->frame_position = 0 - fix2lfix(this_param->input_buffer_increment >> 1);
    441a:	8c 8d       	ldd	r24, Y+28	; 0x1c
    441c:	9d 8d       	ldd	r25, Y+29	; 0x1d
    441e:	96 95       	lsr	r25
    4420:	87 95       	ror	r24
    4422:	92 95       	swap	r25
    4424:	82 95       	swap	r24
    4426:	8f 70       	andi	r24, 0x0F	; 15
    4428:	89 27       	eor	r24, r25
    442a:	9f 70       	andi	r25, 0x0F	; 15
    442c:	89 27       	eor	r24, r25
    442e:	90 95       	com	r25
    4430:	81 95       	neg	r24
    4432:	9f 4f       	sbci	r25, 0xFF	; 255
    4434:	9a 87       	std	Y+10, r25	; 0x0a
    4436:	89 87       	std	Y+9, r24	; 0x09
				this_param->prev_frame_position = 0;
    4438:	1c 86       	std	Y+12, r1	; 0x0c
    443a:	1b 86       	std	Y+11, r1	; 0x0b
				clear(this_param);
    443c:	ce 01       	movw	r24, r28
    443e:	0e 94 5a 20 	call	0x40b4	; 0x40b4 <clear>
//				this_param->input_buffer_resample_position -= (this_param->input_buffer_increment - this_param->boundary_alignment);
				PORTD &= _BV(PB3);
    4442:	5b 98       	cbi	0x0b, 3	; 11
    4444:	b2 cf       	rjmp	.-156    	; 0x43aa <find_freq+0x292>
				if(analyze_output > this_param->thresh) { // This is the first time we're going above the threshold
					this_param->prev_frame_position = this_param->frame_position;
				}
			}
			else {
				if(analyze_output < this_param->thresh) { // We've crossed above the threshold previously and are now going down
    4446:	22 16       	cp	r2, r18
    4448:	33 06       	cpc	r3, r19
    444a:	44 06       	cpc	r4, r20
    444c:	55 06       	cpc	r5, r21
    444e:	0c f0       	brlt	.+2      	; 0x4452 <find_freq+0x33a>
    4450:	82 cf       	rjmp	.-252    	; 0x4356 <find_freq+0x23e>
					if(this_param->frame_position - this_param->prev_frame_position < int2lfix(1)) { 	// False alarm
    4452:	49 85       	ldd	r20, Y+9	; 0x09
    4454:	5a 85       	ldd	r21, Y+10	; 0x0a
    4456:	9a 01       	movw	r18, r20
    4458:	28 1b       	sub	r18, r24
    445a:	39 0b       	sbc	r19, r25
    445c:	20 34       	cpi	r18, 0x40	; 64
    445e:	31 05       	cpc	r19, r1
    4460:	18 f4       	brcc	.+6      	; 0x4468 <find_freq+0x350>
						this_param->prev_frame_position = 0;
    4462:	1c 86       	std	Y+12, r1	; 0x0c
    4464:	1b 86       	std	Y+11, r1	; 0x0b
    4466:	79 cf       	rjmp	.-270    	; 0x435a <find_freq+0x242>
					}
					else {	// We got a pulse
						clear(this_param);
    4468:	ce 01       	movw	r24, r28
    446a:	0e 94 5a 20 	call	0x40b4	; 0x40b4 <clear>
						this_param->output_char |= bitmasks[7-lfix2int((this_param->prev_frame_position + ((this_param->frame_position - this_param->prev_frame_position)>>1)) >> 6)];
    446e:	2b 85       	ldd	r18, Y+11	; 0x0b
    4470:	3c 85       	ldd	r19, Y+12	; 0x0c
    4472:	49 85       	ldd	r20, Y+9	; 0x09
    4474:	5a 85       	ldd	r21, Y+10	; 0x0a
    4476:	ca 01       	movw	r24, r20
    4478:	82 1b       	sub	r24, r18
    447a:	93 0b       	sbc	r25, r19
    447c:	96 95       	lsr	r25
    447e:	87 95       	ror	r24
    4480:	82 0f       	add	r24, r18
    4482:	93 1f       	adc	r25, r19
    4484:	89 2f       	mov	r24, r25
    4486:	99 27       	eor	r25, r25
    4488:	82 95       	swap	r24
    448a:	8f 70       	andi	r24, 0x0F	; 15
    448c:	ef e0       	ldi	r30, 0x0F	; 15
    448e:	f1 e0       	ldi	r31, 0x01	; 1
    4490:	e8 1b       	sub	r30, r24
    4492:	f9 0b       	sbc	r31, r25
    4494:	8d a1       	ldd	r24, Y+37	; 0x25
    4496:	90 81       	ld	r25, Z
    4498:	89 2b       	or	r24, r25
    449a:	8d a3       	std	Y+37, r24	; 0x25
						this_param->prev_frame_position = 0;
    449c:	1c 86       	std	Y+12, r1	; 0x0c
    449e:	1b 86       	std	Y+11, r1	; 0x0b
    44a0:	6c a1       	ldd	r22, Y+36	; 0x24
    44a2:	5b cf       	rjmp	.-330    	; 0x435a <find_freq+0x242>

000044a4 <init>:
	memset(this_param->resample_buffer_cos, 0, this_param->resample_buffer_size);
	memset(this_param->resample_buffer_sin_shift, 0, this_param->resample_buffer_size);
	memset(this_param->resample_buffer_cos_shift, 0, this_param->resample_buffer_size);
}

void init() {
    44a4:	8f 92       	push	r8
    44a6:	9f 92       	push	r9
    44a8:	af 92       	push	r10
    44aa:	bf 92       	push	r11
    44ac:	cf 92       	push	r12
    44ae:	df 92       	push	r13
    44b0:	ef 92       	push	r14
    44b2:	ff 92       	push	r15
    44b4:	0f 93       	push	r16
    44b6:	1f 93       	push	r17
    44b8:	cf 93       	push	r28
    44ba:	df 93       	push	r29
	uint8_t i;
	float float_temp;
	DDRC = 0xff;
    44bc:	8f ef       	ldi	r24, 0xFF	; 255
    44be:	87 b9       	out	0x07, r24	; 7
	DDRD = _BV(PB7) | _BV(PB3) | _BV(PB2) | _BV(PB1) | _BV(PB0);
    44c0:	8f e8       	ldi	r24, 0x8F	; 143
    44c2:	8a b9       	out	0x0a, r24	; 10
	PORTD |= _BV(PB2) | _BV(PB3);
    44c4:	8b b1       	in	r24, 0x0b	; 11
    44c6:	8c 60       	ori	r24, 0x0C	; 12
    44c8:	8b b9       	out	0x0b, r24	; 11

	/* Setup sampling timer */
	TCCR1B = _BV(WGM12) | _BV(CS10);	// Clear on timer compare, no prescaling
    44ca:	89 e0       	ldi	r24, 0x09	; 9
    44cc:	80 93 81 00 	sts	0x0081, r24
	OCR1A = 500;				// Fire every 25us = 40000Hz (our sampling frequency)
    44d0:	84 ef       	ldi	r24, 0xF4	; 244
    44d2:	91 e0       	ldi	r25, 0x01	; 1
    44d4:	90 93 89 00 	sts	0x0089, r25
    44d8:	80 93 88 00 	sts	0x0088, r24
	OCR1B = 480;
    44dc:	80 ee       	ldi	r24, 0xE0	; 224
    44de:	91 e0       	ldi	r25, 0x01	; 1
    44e0:	90 93 8b 00 	sts	0x008B, r25
    44e4:	80 93 8a 00 	sts	0x008A, r24
	TIMSK1 = _BV(OCIE1A) | _BV(OCIE1B);		// Enable output compare A interrupt
    44e8:	96 e0       	ldi	r25, 0x06	; 6
    44ea:	90 93 6f 00 	sts	0x006F, r25

	/* Setup AD converter */
	ADMUX = _BV(REFS0) | _BV(ADLAR);
    44ee:	80 e6       	ldi	r24, 0x60	; 96
    44f0:	80 93 7c 00 	sts	0x007C, r24
	ADCSRA = _BV(ADEN) | _BV(ADSC) | 6;
    44f4:	86 ec       	ldi	r24, 0xC6	; 198
    44f6:	80 93 7a 00 	sts	0x007A, r24

	/* Setup UART */
	UCSR0B = _BV(RXEN0) | _BV(TXEN0);	// Enable receive and transmit
    44fa:	88 e1       	ldi	r24, 0x18	; 24
    44fc:	80 93 c1 00 	sts	0x00C1, r24
	UCSR0C = _BV(UCSZ01) | _BV(UCSZ00);		// Set 8-bit frames
    4500:	90 93 c2 00 	sts	0x00C2, r25
	#if defined(DEBUG_DUMP) || defined(DEBUG_THRESH) || defined(DEBUG_RS_DUMP)
		UCSR0A = _BV(U2X0);
    4504:	82 e0       	ldi	r24, 0x02	; 2
    4506:	80 93 c0 00 	sts	0x00C0, r24
		UBRR0 = 10;		// Set baud rate to 230400
    450a:	8a e0       	ldi	r24, 0x0A	; 10
    450c:	90 e0       	ldi	r25, 0x00	; 0
    450e:	90 93 c5 00 	sts	0x00C5, r25
    4512:	80 93 c4 00 	sts	0x00C4, r24
	#else
		UBRR0 = 520;	// Set baud rate to 2400
	#endif

	memset(input_buffer, 0, sizeof(int8_t) * IN_BUFFER_SIZE);
    4516:	25 e4       	ldi	r18, 0x45	; 69
    4518:	31 e0       	ldi	r19, 0x01	; 1
    451a:	c9 01       	movw	r24, r18
    451c:	60 e0       	ldi	r22, 0x00	; 0
    451e:	70 e0       	ldi	r23, 0x00	; 0
    4520:	40 e4       	ldi	r20, 0x40	; 64
    4522:	50 e0       	ldi	r21, 0x00	; 0
    4524:	0e 94 8c 2a 	call	0x5518	; 0x5518 <memset>
	memset(recv_params, 0, sizeof(struct recv_param_t) * NUM_FREQS);
    4528:	a5 e8       	ldi	r26, 0x85	; 133
    452a:	b1 e0       	ldi	r27, 0x01	; 1
    452c:	84 e5       	ldi	r24, 0x54	; 84
    452e:	ed 01       	movw	r28, r26
    4530:	19 92       	st	Y+, r1
    4532:	8a 95       	dec	r24
    4534:	e9 f7       	brne	.-6      	; 0x4530 <init+0x8c>
	memset(resample_buffer_pool, 0, sizeof(int8_t) * RESAMPLE_BUFFER_MAX_SIZE);
    4536:	eb e1       	ldi	r30, 0x1B	; 27
    4538:	f6 e0       	ldi	r31, 0x06	; 6
    453a:	80 e0       	ldi	r24, 0x00	; 0
    453c:	94 e0       	ldi	r25, 0x04	; 4
    453e:	ef 01       	movw	r28, r30
    4540:	9c 01       	movw	r18, r24
    4542:	19 92       	st	Y+, r1
    4544:	21 50       	subi	r18, 0x01	; 1
    4546:	30 40       	sbci	r19, 0x00	; 0
    4548:	e1 f7       	brne	.-8      	; 0x4542 <init+0x9e>
    454a:	80 90 41 01 	lds	r8, 0x0141
    454e:	90 90 42 01 	lds	r9, 0x0142
    4552:	ed 01       	movw	r28, r26
    4554:	eb e1       	ldi	r30, 0x1B	; 27
    4556:	ae 2e       	mov	r10, r30
    4558:	b1 2c       	mov	r11, r1
    455a:	aa 0e       	add	r10, r26
    455c:	bb 1e       	adc	r11, r27
    455e:	cc 24       	eor	r12, r12
    4560:	dd 24       	eor	r13, r13
	for(i=0; i<NUM_FREQS; ++i) {
		float_temp = 40000. / freqs[i];
    4562:	f6 01       	movw	r30, r12
    4564:	ef 5e       	subi	r30, 0xEF	; 239
    4566:	fe 4f       	sbci	r31, 0xFE	; 254
    4568:	60 e0       	ldi	r22, 0x00	; 0
    456a:	70 e4       	ldi	r23, 0x40	; 64
    456c:	8c e1       	ldi	r24, 0x1C	; 28
    456e:	97 e4       	ldi	r25, 0x47	; 71
    4570:	20 81       	ld	r18, Z
    4572:	31 81       	ldd	r19, Z+1	; 0x01
    4574:	42 81       	ldd	r20, Z+2	; 0x02
    4576:	53 81       	ldd	r21, Z+3	; 0x03
    4578:	0e 94 57 27 	call	0x4eae	; 0x4eae <__divsf3>
    457c:	7b 01       	movw	r14, r22
    457e:	8c 01       	movw	r16, r24
		recv_params[i].input_buffer_increment = float2fix(float_temp);
    4580:	20 e0       	ldi	r18, 0x00	; 0
    4582:	30 e0       	ldi	r19, 0x00	; 0
    4584:	40 e8       	ldi	r20, 0x80	; 128
    4586:	54 e4       	ldi	r21, 0x44	; 68
    4588:	0e 94 5d 26 	call	0x4cba	; 0x4cba <__mulsf3>
    458c:	0e 94 87 24 	call	0x490e	; 0x490e <__fixunssfsi>
    4590:	7d 8f       	std	Y+29, r23	; 0x1d
    4592:	6c 8f       	std	Y+28, r22	; 0x1c
		recv_params[i].input_buffer_1_4phase = float2fix(float_temp / 4.);
    4594:	c8 01       	movw	r24, r16
    4596:	b7 01       	movw	r22, r14
    4598:	20 e0       	ldi	r18, 0x00	; 0
    459a:	30 e0       	ldi	r19, 0x00	; 0
    459c:	40 e8       	ldi	r20, 0x80	; 128
    459e:	5e e3       	ldi	r21, 0x3E	; 62
    45a0:	0e 94 5d 26 	call	0x4cba	; 0x4cba <__mulsf3>
    45a4:	20 e0       	ldi	r18, 0x00	; 0
    45a6:	30 e0       	ldi	r19, 0x00	; 0
    45a8:	40 e8       	ldi	r20, 0x80	; 128
    45aa:	54 e4       	ldi	r21, 0x44	; 68
    45ac:	0e 94 5d 26 	call	0x4cba	; 0x4cba <__mulsf3>
    45b0:	0e 94 87 24 	call	0x490e	; 0x490e <__fixunssfsi>
    45b4:	79 a3       	std	Y+33, r23	; 0x21
    45b6:	68 a3       	std	Y+32, r22	; 0x20
		recv_params[i].input_buffer_1_8phase = float2fix(float_temp / 8.);
    45b8:	c8 01       	movw	r24, r16
    45ba:	b7 01       	movw	r22, r14
    45bc:	20 e0       	ldi	r18, 0x00	; 0
    45be:	30 e0       	ldi	r19, 0x00	; 0
    45c0:	40 e0       	ldi	r20, 0x00	; 0
    45c2:	5e e3       	ldi	r21, 0x3E	; 62
    45c4:	0e 94 5d 26 	call	0x4cba	; 0x4cba <__mulsf3>
    45c8:	20 e0       	ldi	r18, 0x00	; 0
    45ca:	30 e0       	ldi	r19, 0x00	; 0
    45cc:	40 e8       	ldi	r20, 0x80	; 128
    45ce:	54 e4       	ldi	r21, 0x44	; 68
    45d0:	0e 94 5d 26 	call	0x4cba	; 0x4cba <__mulsf3>
    45d4:	0e 94 87 24 	call	0x490e	; 0x490e <__fixunssfsi>
    45d8:	7f 8f       	std	Y+31, r23	; 0x1f
    45da:	6e 8f       	std	Y+30, r22	; 0x1e
		recv_params[i].input_buffer_3_8phase = float2fix((float_temp * 3.) / 8.);
    45dc:	c8 01       	movw	r24, r16
    45de:	b7 01       	movw	r22, r14
    45e0:	20 e0       	ldi	r18, 0x00	; 0
    45e2:	30 e0       	ldi	r19, 0x00	; 0
    45e4:	40 e4       	ldi	r20, 0x40	; 64
    45e6:	50 e4       	ldi	r21, 0x40	; 64
    45e8:	0e 94 5d 26 	call	0x4cba	; 0x4cba <__mulsf3>
    45ec:	20 e0       	ldi	r18, 0x00	; 0
    45ee:	30 e0       	ldi	r19, 0x00	; 0
    45f0:	40 e0       	ldi	r20, 0x00	; 0
    45f2:	5e e3       	ldi	r21, 0x3E	; 62
    45f4:	0e 94 5d 26 	call	0x4cba	; 0x4cba <__mulsf3>
    45f8:	20 e0       	ldi	r18, 0x00	; 0
    45fa:	30 e0       	ldi	r19, 0x00	; 0
    45fc:	40 e8       	ldi	r20, 0x80	; 128
    45fe:	54 e4       	ldi	r21, 0x44	; 68
    4600:	0e 94 5d 26 	call	0x4cba	; 0x4cba <__mulsf3>
    4604:	0e 94 87 24 	call	0x490e	; 0x490e <__fixunssfsi>
    4608:	f5 01       	movw	r30, r10
    460a:	70 87       	std	Z+8, r23	; 0x08
    460c:	67 83       	std	Z+7, r22	; 0x07
		recv_params[i].resample_buffer_size = (uint8_t)ceil(64. / float_temp);
    460e:	60 e0       	ldi	r22, 0x00	; 0
    4610:	70 e0       	ldi	r23, 0x00	; 0
    4612:	80 e8       	ldi	r24, 0x80	; 128
    4614:	92 e4       	ldi	r25, 0x42	; 66
    4616:	a8 01       	movw	r20, r16
    4618:	97 01       	movw	r18, r14
    461a:	0e 94 57 27 	call	0x4eae	; 0x4eae <__divsf3>
    461e:	0e 94 93 2a 	call	0x5526	; 0x5526 <ceil>
    4622:	0e 94 87 24 	call	0x490e	; 0x490e <__fixunssfsi>
    4626:	f5 01       	movw	r30, r10
    4628:	60 83       	st	Z, r22
		recv_params[i].resample_buffer_sin = resample_buffer_pool + resample_buffer_next_free;
    462a:	94 01       	movw	r18, r8
    462c:	25 5e       	subi	r18, 0xE5	; 229
    462e:	39 4f       	sbci	r19, 0xF9	; 249
    4630:	39 83       	std	Y+1, r19	; 0x01
    4632:	28 83       	st	Y, r18
		resample_buffer_next_free += recv_params[i].resample_buffer_size;
    4634:	70 e0       	ldi	r23, 0x00	; 0
    4636:	9b 01       	movw	r18, r22
    4638:	28 0d       	add	r18, r8
    463a:	39 1d       	adc	r19, r9
		recv_params[i].resample_buffer_cos = resample_buffer_pool + resample_buffer_next_free;
    463c:	a9 01       	movw	r20, r18
    463e:	45 5e       	subi	r20, 0xE5	; 229
    4640:	59 4f       	sbci	r21, 0xF9	; 249
    4642:	5b 83       	std	Y+3, r21	; 0x03
    4644:	4a 83       	std	Y+2, r20	; 0x02
		resample_buffer_next_free += recv_params[i].resample_buffer_size;
    4646:	26 0f       	add	r18, r22
    4648:	37 1f       	adc	r19, r23
		recv_params[i].resample_buffer_sin_shift = resample_buffer_pool + resample_buffer_next_free;
    464a:	a9 01       	movw	r20, r18
    464c:	45 5e       	subi	r20, 0xE5	; 229
    464e:	59 4f       	sbci	r21, 0xF9	; 249
    4650:	5d 83       	std	Y+5, r21	; 0x05
    4652:	4c 83       	std	Y+4, r20	; 0x04
		resample_buffer_next_free += recv_params[i].resample_buffer_size;
    4654:	26 0f       	add	r18, r22
    4656:	37 1f       	adc	r19, r23
		recv_params[i].resample_buffer_cos_shift = resample_buffer_pool + resample_buffer_next_free;
    4658:	a9 01       	movw	r20, r18
    465a:	45 5e       	subi	r20, 0xE5	; 229
    465c:	59 4f       	sbci	r21, 0xF9	; 249
    465e:	5f 83       	std	Y+7, r21	; 0x07
    4660:	4e 83       	std	Y+6, r20	; 0x06
		resample_buffer_next_free += recv_params[i].resample_buffer_size;
    4662:	49 01       	movw	r8, r18
    4664:	86 0e       	add	r8, r22
    4666:	97 1e       	adc	r9, r23
//		recv_params[i].boundary_alignment = float2fix((float_temp * (float)(recv_params[i].resample_buffer_size)) - 64.);
		recv_params[i].thresh = thresholds[i];
    4668:	f6 01       	movw	r30, r12
    466a:	e3 5e       	subi	r30, 0xE3	; 227
    466c:	fe 4f       	sbci	r31, 0xFE	; 254
    466e:	80 81       	ld	r24, Z
    4670:	91 81       	ldd	r25, Z+1	; 0x01
    4672:	a2 81       	ldd	r26, Z+2	; 0x02
    4674:	b3 81       	ldd	r27, Z+3	; 0x03
    4676:	f5 01       	movw	r30, r10
    4678:	83 87       	std	Z+11, r24	; 0x0b
    467a:	94 87       	std	Z+12, r25	; 0x0c
    467c:	a5 87       	std	Z+13, r26	; 0x0d
    467e:	b6 87       	std	Z+14, r27	; 0x0e
    4680:	24 e0       	ldi	r18, 0x04	; 4
    4682:	30 e0       	ldi	r19, 0x00	; 0
    4684:	c2 0e       	add	r12, r18
    4686:	d3 1e       	adc	r13, r19
    4688:	aa 96       	adiw	r28, 0x2a	; 42
    468a:	8a e2       	ldi	r24, 0x2A	; 42
    468c:	90 e0       	ldi	r25, 0x00	; 0
    468e:	a8 0e       	add	r10, r24
    4690:	b9 1e       	adc	r11, r25
	#endif

	memset(input_buffer, 0, sizeof(int8_t) * IN_BUFFER_SIZE);
	memset(recv_params, 0, sizeof(struct recv_param_t) * NUM_FREQS);
	memset(resample_buffer_pool, 0, sizeof(int8_t) * RESAMPLE_BUFFER_MAX_SIZE);
	for(i=0; i<NUM_FREQS; ++i) {
    4692:	98 e0       	ldi	r25, 0x08	; 8
    4694:	c9 16       	cp	r12, r25
    4696:	d1 04       	cpc	r13, r1
    4698:	09 f0       	breq	.+2      	; 0x469c <init+0x1f8>
    469a:	63 cf       	rjmp	.-314    	; 0x4562 <init+0xbe>
    469c:	90 92 42 01 	sts	0x0142, r9
    46a0:	80 92 41 01 	sts	0x0141, r8
		resample_buffer_next_free += recv_params[i].resample_buffer_size;
//		recv_params[i].boundary_alignment = float2fix((float_temp * (float)(recv_params[i].resample_buffer_size)) - 64.);
		recv_params[i].thresh = thresholds[i];
	}

	sei();
    46a4:	78 94       	sei
	set_sleep_mode(SLEEP_MODE_IDLE);
    46a6:	83 b7       	in	r24, 0x33	; 51
    46a8:	81 7f       	andi	r24, 0xF1	; 241
    46aa:	83 bf       	out	0x33, r24	; 51
	sleep_enable();
    46ac:	83 b7       	in	r24, 0x33	; 51
    46ae:	81 60       	ori	r24, 0x01	; 1
    46b0:	83 bf       	out	0x33, r24	; 51
}
    46b2:	df 91       	pop	r29
    46b4:	cf 91       	pop	r28
    46b6:	1f 91       	pop	r17
    46b8:	0f 91       	pop	r16
    46ba:	ff 90       	pop	r15
    46bc:	ef 90       	pop	r14
    46be:	df 90       	pop	r13
    46c0:	cf 90       	pop	r12
    46c2:	bf 90       	pop	r11
    46c4:	af 90       	pop	r10
    46c6:	9f 90       	pop	r9
    46c8:	8f 90       	pop	r8
    46ca:	08 95       	ret

000046cc <main>:
	sei();
	sleep_cpu();
	reti();
}

int main() {
    46cc:	0f 93       	push	r16
    46ce:	1f 93       	push	r17
	uint8_t i = 0;
	init();
    46d0:	0e 94 52 22 	call	0x44a4	; 0x44a4 <init>
	next_buffer = 2;
    46d4:	82 e0       	ldi	r24, 0x02	; 2
    46d6:	80 93 3b 01 	sts	0x013B, r24
					while(curr_debug_output != debugCache_p) {
						while(!(UCSR0A & _BV(UDRE0))) {;}
						UDR0 = debugCache[curr_debug_output];
						curr_debug_output = (curr_debug_output+1) & 0x3ff;
					}
					debug_enabled = 1;
    46da:	11 e0       	ldi	r17, 0x01	; 1
				}
		#endif
		if(UCSR0A & _BV(RXC0)) {	// We've received a serial byte
			while(output_buffer_status[next_buffer] != IDLE) {;}
			output_buffer[next_buffer] = UDR0;
			output_buffer_status[next_buffer] = START_BIT;
    46dc:	0f ef       	ldi	r16, 0xFF	; 255
	init();
	next_buffer = 2;
	while(1) {
		#if defined(DEBUG_DUMP) || defined(DEBUG_RS_DUMP)
			#if defined(DEBUG_DUMP)
				if(offset_timer >= 700) {
    46de:	80 91 3f 01 	lds	r24, 0x013F
    46e2:	90 91 40 01 	lds	r25, 0x0140
    46e6:	8c 5b       	subi	r24, 0xBC	; 188
    46e8:	92 40       	sbci	r25, 0x02	; 2
    46ea:	88 f1       	brcs	.+98     	; 0x474e <main+0x82>
			#elif defined(DEBUG_RS_DUMP)
				if(offset_timer >= 500) {
			#endif
					debug_enabled = 0;
    46ec:	10 92 10 01 	sts	0x0110, r1
					curr_debug_output = debugCache_p+1;
    46f0:	20 91 3d 01 	lds	r18, 0x013D
    46f4:	30 91 3e 01 	lds	r19, 0x013E
    46f8:	2f 5f       	subi	r18, 0xFF	; 255
    46fa:	3f 4f       	sbci	r19, 0xFF	; 255
    46fc:	30 93 1a 06 	sts	0x061A, r19
    4700:	20 93 19 06 	sts	0x0619, r18
					while(curr_debug_output != debugCache_p) {
    4704:	80 91 3d 01 	lds	r24, 0x013D
    4708:	90 91 3e 01 	lds	r25, 0x013E
    470c:	28 17       	cp	r18, r24
    470e:	39 07       	cpc	r19, r25
    4710:	c1 f0       	breq	.+48     	; 0x4742 <main+0x76>
						while(!(UCSR0A & _BV(UDRE0))) {;}
    4712:	80 91 c0 00 	lds	r24, 0x00C0
    4716:	85 ff       	sbrs	r24, 5
    4718:	fc cf       	rjmp	.-8      	; 0x4712 <main+0x46>
						UDR0 = debugCache[curr_debug_output];
    471a:	f9 01       	movw	r30, r18
    471c:	e7 52       	subi	r30, 0x27	; 39
    471e:	fe 4f       	sbci	r31, 0xFE	; 254
    4720:	80 81       	ld	r24, Z
    4722:	80 93 c6 00 	sts	0x00C6, r24
						curr_debug_output = (curr_debug_output+1) & 0x3ff;
    4726:	2f 5f       	subi	r18, 0xFF	; 255
    4728:	3f 4f       	sbci	r19, 0xFF	; 255
    472a:	33 70       	andi	r19, 0x03	; 3
			#elif defined(DEBUG_RS_DUMP)
				if(offset_timer >= 500) {
			#endif
					debug_enabled = 0;
					curr_debug_output = debugCache_p+1;
					while(curr_debug_output != debugCache_p) {
    472c:	80 91 3d 01 	lds	r24, 0x013D
    4730:	90 91 3e 01 	lds	r25, 0x013E
    4734:	82 17       	cp	r24, r18
    4736:	93 07       	cpc	r25, r19
    4738:	61 f7       	brne	.-40     	; 0x4712 <main+0x46>
    473a:	30 93 1a 06 	sts	0x061A, r19
    473e:	20 93 19 06 	sts	0x0619, r18
						while(!(UCSR0A & _BV(UDRE0))) {;}
						UDR0 = debugCache[curr_debug_output];
						curr_debug_output = (curr_debug_output+1) & 0x3ff;
					}
					debug_enabled = 1;
    4742:	10 93 10 01 	sts	0x0110, r17
					offset_timer = 0;
    4746:	10 92 40 01 	sts	0x0140, r1
    474a:	10 92 3f 01 	sts	0x013F, r1
				}
		#endif
		if(UCSR0A & _BV(RXC0)) {	// We've received a serial byte
    474e:	80 91 c0 00 	lds	r24, 0x00C0
    4752:	87 fd       	sbrc	r24, 7
    4754:	09 c0       	rjmp	.+18     	; 0x4768 <main+0x9c>
			else
				next_buffer = 0;
			//next_buffer = (next_buffer + 1) & 0x1;
		}
		for(i=0; i<NUM_FREQS; ++i) {
			find_freq(recv_params + i);
    4756:	85 e8       	ldi	r24, 0x85	; 133
    4758:	91 e0       	ldi	r25, 0x01	; 1
    475a:	0e 94 8c 20 	call	0x4118	; 0x4118 <find_freq>
    475e:	8f ea       	ldi	r24, 0xAF	; 175
    4760:	91 e0       	ldi	r25, 0x01	; 1
    4762:	0e 94 8c 20 	call	0x4118	; 0x4118 <find_freq>
    4766:	bb cf       	rjmp	.-138    	; 0x46de <main+0x12>
					debug_enabled = 1;
					offset_timer = 0;
				}
		#endif
		if(UCSR0A & _BV(RXC0)) {	// We've received a serial byte
			while(output_buffer_status[next_buffer] != IDLE) {;}
    4768:	90 91 3b 01 	lds	r25, 0x013B
    476c:	a9 2f       	mov	r26, r25
    476e:	b0 e0       	ldi	r27, 0x00	; 0
    4770:	fd 01       	movw	r30, r26
    4772:	e0 50       	subi	r30, 0x00	; 0
    4774:	ff 4f       	sbci	r31, 0xFF	; 255
    4776:	80 81       	ld	r24, Z
    4778:	8e 3f       	cpi	r24, 0xFE	; 254
    477a:	e9 f7       	brne	.-6      	; 0x4776 <main+0xaa>
			output_buffer[next_buffer] = UDR0;
    477c:	80 91 c6 00 	lds	r24, 0x00C6
    4780:	ad 5c       	subi	r26, 0xCD	; 205
    4782:	be 4f       	sbci	r27, 0xFE	; 254
    4784:	8c 93       	st	X, r24
			output_buffer_status[next_buffer] = START_BIT;
    4786:	00 83       	st	Z, r16
			if (next_buffer == 0)
    4788:	99 23       	and	r25, r25
    478a:	19 f4       	brne	.+6      	; 0x4792 <main+0xc6>
				next_buffer = 1;
    478c:	10 93 3b 01 	sts	0x013B, r17
    4790:	e2 cf       	rjmp	.-60     	; 0x4756 <main+0x8a>
//			else if (next_buffer == 1)
//				next_buffer = 2;
			else
				next_buffer = 0;
    4792:	10 92 3b 01 	sts	0x013B, r1
    4796:	df cf       	rjmp	.-66     	; 0x4756 <main+0x8a>

00004798 <__vector_13>:
volatile uint8_t public_input_buffer_position = 0;
void init();
void find_freq(struct recv_param_t*);
void clear(struct recv_param_t*);

ISR(TIMER1_COMPA_vect) {
    4798:	1f 92       	push	r1
    479a:	0f 92       	push	r0
    479c:	0f b6       	in	r0, 0x3f	; 63
    479e:	0f 92       	push	r0
    47a0:	11 24       	eor	r1, r1
    47a2:	2f 93       	push	r18
    47a4:	3f 93       	push	r19
    47a6:	4f 93       	push	r20
    47a8:	5f 93       	push	r21
    47aa:	6f 93       	push	r22
    47ac:	7f 93       	push	r23
    47ae:	8f 93       	push	r24
    47b0:	9f 93       	push	r25
    47b2:	af 93       	push	r26
    47b4:	bf 93       	push	r27
    47b6:	cf 93       	push	r28
    47b8:	df 93       	push	r29
    47ba:	ef 93       	push	r30
    47bc:	ff 93       	push	r31
	uint8_t i;
	PORTD &= _BV(PB7);
    47be:	5f 98       	cbi	0x0b, 7	; 11
	PORTC = freqCache[output_sample_num];
    47c0:	90 91 32 01 	lds	r25, 0x0132
    47c4:	e9 2f       	mov	r30, r25
    47c6:	f0 e0       	ldi	r31, 0x00	; 0
    47c8:	e7 52       	subi	r30, 0x27	; 39
    47ca:	fa 4f       	sbci	r31, 0xFA	; 250
    47cc:	80 81       	ld	r24, Z
    47ce:	88 b9       	out	0x08, r24	; 8
	output_sample_num = (output_sample_num + 1) & 0x3f;
    47d0:	39 2f       	mov	r19, r25
    47d2:	3f 5f       	subi	r19, 0xFF	; 255
    47d4:	3f 73       	andi	r19, 0x3F	; 63
    47d6:	30 93 32 01 	sts	0x0132, r19
	PORTD |= _BV(PB7);	
    47da:	5f 9a       	sbi	0x0b, 7	; 11
	input_buffer[input_buffer_pos] = ADCH - 0x7E;
    47dc:	20 91 43 01 	lds	r18, 0x0143
    47e0:	a2 2f       	mov	r26, r18
    47e2:	b0 e0       	ldi	r27, 0x00	; 0
    47e4:	80 91 79 00 	lds	r24, 0x0079
    47e8:	8e 57       	subi	r24, 0x7E	; 126
    47ea:	ab 5b       	subi	r26, 0xBB	; 187
    47ec:	be 4f       	sbci	r27, 0xFE	; 254
    47ee:	8c 93       	st	X, r24
	ADCSRA |= _BV(ADSC);
    47f0:	80 91 7a 00 	lds	r24, 0x007A
    47f4:	80 64       	ori	r24, 0x40	; 64
    47f6:	80 93 7a 00 	sts	0x007A, r24
	public_input_buffer_position = input_buffer_pos;
    47fa:	20 93 44 01 	sts	0x0144, r18
	#if defined(DEBUG_DUMP)
		if(debug_enabled) {
    47fe:	80 91 10 01 	lds	r24, 0x0110
    4802:	88 23       	and	r24, r24
    4804:	c9 f0       	breq	.+50     	; 0x4838 <__vector_13+0xa0>
			debugCache[debugCache_p] = input_buffer[input_buffer_pos];
    4806:	e0 91 3d 01 	lds	r30, 0x013D
    480a:	f0 91 3e 01 	lds	r31, 0x013E
    480e:	8c 91       	ld	r24, X
    4810:	e7 52       	subi	r30, 0x27	; 39
    4812:	fe 4f       	sbci	r31, 0xFE	; 254
    4814:	80 83       	st	Z, r24
			debugCache_p = (debugCache_p + 1) & 0x3ff;
    4816:	80 91 3d 01 	lds	r24, 0x013D
    481a:	90 91 3e 01 	lds	r25, 0x013E
    481e:	01 96       	adiw	r24, 0x01	; 1
    4820:	93 70       	andi	r25, 0x03	; 3
    4822:	90 93 3e 01 	sts	0x013E, r25
    4826:	80 93 3d 01 	sts	0x013D, r24
			if(offset_timer > 0) {
    482a:	80 91 3f 01 	lds	r24, 0x013F
    482e:	90 91 40 01 	lds	r25, 0x0140
    4832:	89 2b       	or	r24, r25
    4834:	09 f0       	breq	.+2      	; 0x4838 <__vector_13+0xa0>
    4836:	5e c0       	rjmp	.+188    	; 0x48f4 <__vector_13+0x15c>
				++offset_timer;
			}
		}
	#endif
	input_buffer_pos = (input_buffer_pos+1) & (IN_BUFFER_SIZE - 1);
    4838:	2f 5f       	subi	r18, 0xFF	; 255
    483a:	2f 73       	andi	r18, 0x3F	; 63
    483c:	20 93 43 01 	sts	0x0143, r18
	if(output_sample_num == 0) {
    4840:	33 23       	and	r19, r19
    4842:	09 f0       	breq	.+2      	; 0x4846 <__vector_13+0xae>
    4844:	41 c0       	rjmp	.+130    	; 0x48c8 <__vector_13+0x130>
    4846:	a3 e3       	ldi	r26, 0x33	; 51
    4848:	b1 e0       	ldi	r27, 0x01	; 1
    484a:	c8 e0       	ldi	r28, 0x08	; 8
    484c:	d1 e0       	ldi	r29, 0x01	; 1
    484e:	60 e0       	ldi	r22, 0x00	; 0
    4850:	20 e0       	ldi	r18, 0x00	; 0
    4852:	30 e0       	ldi	r19, 0x00	; 0
			else if(output_buffer_status[i] == START_BIT) {
				output_bitpattern |= bitmasks[i];
				PORTD &= _BV(PB2);
			}
			else if(output_buffer_status[i] == STOP_BIT) {
				output_buffer_status[i] = IDLE;
    4854:	9e ef       	ldi	r25, 0xFE	; 254
    4856:	17 c0       	rjmp	.+46     	; 0x4886 <__vector_13+0xee>
			if(output_buffer_status[i] == IDLE) {continue;}
			else if(output_buffer_status[i] == START_BIT) {
				output_bitpattern |= bitmasks[i];
				PORTD &= _BV(PB2);
			}
			else if(output_buffer_status[i] == STOP_BIT) {
    4858:	80 81       	ld	r24, Z
    485a:	88 30       	cpi	r24, 0x08	; 8
    485c:	09 f4       	brne	.+2      	; 0x4860 <__vector_13+0xc8>
    485e:	47 c0       	rjmp	.+142    	; 0x48ee <__vector_13+0x156>
				output_buffer_status[i] = IDLE;
				PORTD |= _BV(PB2);
				continue;
			}
			else if (output_buffer[i] & 0x80) {
    4860:	8c 91       	ld	r24, X
    4862:	87 fd       	sbrc	r24, 7
    4864:	51 c0       	rjmp	.+162    	; 0x4908 <__vector_13+0x170>
				output_bitpattern |= bitmasks[i];
			}
			if (output_buffer_status[i] != START_BIT) {
    4866:	80 81       	ld	r24, Z
    4868:	8f 3f       	cpi	r24, 0xFF	; 255
    486a:	19 f0       	breq	.+6      	; 0x4872 <__vector_13+0xda>
				output_buffer[i] = output_buffer[i] << 1;
    486c:	8c 91       	ld	r24, X
    486e:	88 0f       	add	r24, r24
    4870:	8c 93       	st	X, r24
			}
			++output_buffer_status[i];
    4872:	80 81       	ld	r24, Z
    4874:	8f 5f       	subi	r24, 0xFF	; 255
    4876:	80 83       	st	Z, r24
    4878:	2f 5f       	subi	r18, 0xFF	; 255
    487a:	3f 4f       	sbci	r19, 0xFF	; 255
    487c:	11 96       	adiw	r26, 0x01	; 1
    487e:	21 96       	adiw	r28, 0x01	; 1
		}
	#endif
	input_buffer_pos = (input_buffer_pos+1) & (IN_BUFFER_SIZE - 1);
	if(output_sample_num == 0) {
		output_bitpattern = 0;
		for(i=0; i<8; ++i) {
    4880:	28 30       	cpi	r18, 0x08	; 8
    4882:	31 05       	cpc	r19, r1
    4884:	69 f0       	breq	.+26     	; 0x48a0 <__vector_13+0x108>
			if(output_buffer_status[i] == IDLE) {continue;}
    4886:	f9 01       	movw	r30, r18
    4888:	e0 50       	subi	r30, 0x00	; 0
    488a:	ff 4f       	sbci	r31, 0xFF	; 255
    488c:	80 81       	ld	r24, Z
    488e:	8e 3f       	cpi	r24, 0xFE	; 254
    4890:	99 f3       	breq	.-26     	; 0x4878 <__vector_13+0xe0>
			else if(output_buffer_status[i] == START_BIT) {
    4892:	80 81       	ld	r24, Z
    4894:	8f 3f       	cpi	r24, 0xFF	; 255
    4896:	01 f7       	brne	.-64     	; 0x4858 <__vector_13+0xc0>
				output_bitpattern |= bitmasks[i];
    4898:	88 81       	ld	r24, Y
    489a:	68 2b       	or	r22, r24
				PORTD &= _BV(PB2);
    489c:	5a 98       	cbi	0x0b, 2	; 11
    489e:	e3 cf       	rjmp	.-58     	; 0x4866 <__vector_13+0xce>
		}
	#endif
	input_buffer_pos = (input_buffer_pos+1) & (IN_BUFFER_SIZE - 1);
	if(output_sample_num == 0) {
		output_bitpattern = 0;
		for(i=0; i<8; ++i) {
    48a0:	60 93 3c 01 	sts	0x013C, r22
			if (output_buffer_status[i] != START_BIT) {
				output_buffer[i] = output_buffer[i] << 1;
			}
			++output_buffer_status[i];
		}
		memcpy_P(freqCache, freqTable[output_bitpattern], sizeof(uint8_t) * 64);
    48a4:	70 e0       	ldi	r23, 0x00	; 0
    48a6:	00 24       	eor	r0, r0
    48a8:	76 95       	lsr	r23
    48aa:	67 95       	ror	r22
    48ac:	07 94       	ror	r0
    48ae:	76 95       	lsr	r23
    48b0:	67 95       	ror	r22
    48b2:	07 94       	ror	r0
    48b4:	76 2f       	mov	r23, r22
    48b6:	60 2d       	mov	r22, r0
    48b8:	60 59       	subi	r22, 0x90	; 144
    48ba:	7f 4f       	sbci	r23, 0xFF	; 255
    48bc:	89 ed       	ldi	r24, 0xD9	; 217
    48be:	95 e0       	ldi	r25, 0x05	; 5
    48c0:	40 e4       	ldi	r20, 0x40	; 64
    48c2:	50 e0       	ldi	r21, 0x00	; 0
    48c4:	0e 94 83 2a 	call	0x5506	; 0x5506 <memcpy_P>
	}
}
    48c8:	ff 91       	pop	r31
    48ca:	ef 91       	pop	r30
    48cc:	df 91       	pop	r29
    48ce:	cf 91       	pop	r28
    48d0:	bf 91       	pop	r27
    48d2:	af 91       	pop	r26
    48d4:	9f 91       	pop	r25
    48d6:	8f 91       	pop	r24
    48d8:	7f 91       	pop	r23
    48da:	6f 91       	pop	r22
    48dc:	5f 91       	pop	r21
    48de:	4f 91       	pop	r20
    48e0:	3f 91       	pop	r19
    48e2:	2f 91       	pop	r18
    48e4:	0f 90       	pop	r0
    48e6:	0f be       	out	0x3f, r0	; 63
    48e8:	0f 90       	pop	r0
    48ea:	1f 90       	pop	r1
    48ec:	18 95       	reti
			else if(output_buffer_status[i] == START_BIT) {
				output_bitpattern |= bitmasks[i];
				PORTD &= _BV(PB2);
			}
			else if(output_buffer_status[i] == STOP_BIT) {
				output_buffer_status[i] = IDLE;
    48ee:	90 83       	st	Z, r25
				PORTD |= _BV(PB2);
    48f0:	5a 9a       	sbi	0x0b, 2	; 11
    48f2:	c2 cf       	rjmp	.-124    	; 0x4878 <__vector_13+0xe0>
	#if defined(DEBUG_DUMP)
		if(debug_enabled) {
			debugCache[debugCache_p] = input_buffer[input_buffer_pos];
			debugCache_p = (debugCache_p + 1) & 0x3ff;
			if(offset_timer > 0) {
				++offset_timer;
    48f4:	80 91 3f 01 	lds	r24, 0x013F
    48f8:	90 91 40 01 	lds	r25, 0x0140
    48fc:	01 96       	adiw	r24, 0x01	; 1
    48fe:	90 93 40 01 	sts	0x0140, r25
    4902:	80 93 3f 01 	sts	0x013F, r24
    4906:	98 cf       	rjmp	.-208    	; 0x4838 <__vector_13+0xa0>
				output_buffer_status[i] = IDLE;
				PORTD |= _BV(PB2);
				continue;
			}
			else if (output_buffer[i] & 0x80) {
				output_bitpattern |= bitmasks[i];
    4908:	88 81       	ld	r24, Y
    490a:	68 2b       	or	r22, r24
    490c:	ac cf       	rjmp	.-168    	; 0x4866 <__vector_13+0xce>

0000490e <__fixunssfsi>:
    490e:	ef 92       	push	r14
    4910:	ff 92       	push	r15
    4912:	0f 93       	push	r16
    4914:	1f 93       	push	r17
    4916:	7b 01       	movw	r14, r22
    4918:	8c 01       	movw	r16, r24
    491a:	20 e0       	ldi	r18, 0x00	; 0
    491c:	30 e0       	ldi	r19, 0x00	; 0
    491e:	40 e0       	ldi	r20, 0x00	; 0
    4920:	5f e4       	ldi	r21, 0x4F	; 79
    4922:	0e 94 03 28 	call	0x5006	; 0x5006 <__gesf2>
    4926:	88 23       	and	r24, r24
    4928:	8c f0       	brlt	.+34     	; 0x494c <__fixunssfsi+0x3e>
    492a:	c8 01       	movw	r24, r16
    492c:	b7 01       	movw	r22, r14
    492e:	20 e0       	ldi	r18, 0x00	; 0
    4930:	30 e0       	ldi	r19, 0x00	; 0
    4932:	40 e0       	ldi	r20, 0x00	; 0
    4934:	5f e4       	ldi	r21, 0x4F	; 79
    4936:	0e 94 ff 25 	call	0x4bfe	; 0x4bfe <__subsf3>
    493a:	0e 94 33 28 	call	0x5066	; 0x5066 <__fixsfsi>
    493e:	9b 01       	movw	r18, r22
    4940:	ac 01       	movw	r20, r24
    4942:	20 50       	subi	r18, 0x00	; 0
    4944:	30 40       	sbci	r19, 0x00	; 0
    4946:	40 40       	sbci	r20, 0x00	; 0
    4948:	50 48       	sbci	r21, 0x80	; 128
    494a:	06 c0       	rjmp	.+12     	; 0x4958 <__fixunssfsi+0x4a>
    494c:	c8 01       	movw	r24, r16
    494e:	b7 01       	movw	r22, r14
    4950:	0e 94 33 28 	call	0x5066	; 0x5066 <__fixsfsi>
    4954:	9b 01       	movw	r18, r22
    4956:	ac 01       	movw	r20, r24
    4958:	b9 01       	movw	r22, r18
    495a:	ca 01       	movw	r24, r20
    495c:	1f 91       	pop	r17
    495e:	0f 91       	pop	r16
    4960:	ff 90       	pop	r15
    4962:	ef 90       	pop	r14
    4964:	08 95       	ret

00004966 <_fpadd_parts>:
    4966:	a0 e0       	ldi	r26, 0x00	; 0
    4968:	b0 e0       	ldi	r27, 0x00	; 0
    496a:	e9 eb       	ldi	r30, 0xB9	; 185
    496c:	f4 e2       	ldi	r31, 0x24	; 36
    496e:	0c 94 4c 2a 	jmp	0x5498	; 0x5498 <__prologue_saves__>
    4972:	dc 01       	movw	r26, r24
    4974:	2b 01       	movw	r4, r22
    4976:	fa 01       	movw	r30, r20
    4978:	9c 91       	ld	r25, X
    497a:	92 30       	cpi	r25, 0x02	; 2
    497c:	08 f4       	brcc	.+2      	; 0x4980 <_fpadd_parts+0x1a>
    497e:	39 c1       	rjmp	.+626    	; 0x4bf2 <_fpadd_parts+0x28c>
    4980:	eb 01       	movw	r28, r22
    4982:	88 81       	ld	r24, Y
    4984:	82 30       	cpi	r24, 0x02	; 2
    4986:	08 f4       	brcc	.+2      	; 0x498a <_fpadd_parts+0x24>
    4988:	33 c1       	rjmp	.+614    	; 0x4bf0 <_fpadd_parts+0x28a>
    498a:	94 30       	cpi	r25, 0x04	; 4
    498c:	69 f4       	brne	.+26     	; 0x49a8 <_fpadd_parts+0x42>
    498e:	84 30       	cpi	r24, 0x04	; 4
    4990:	09 f0       	breq	.+2      	; 0x4994 <_fpadd_parts+0x2e>
    4992:	2f c1       	rjmp	.+606    	; 0x4bf2 <_fpadd_parts+0x28c>
    4994:	11 96       	adiw	r26, 0x01	; 1
    4996:	9c 91       	ld	r25, X
    4998:	11 97       	sbiw	r26, 0x01	; 1
    499a:	89 81       	ldd	r24, Y+1	; 0x01
    499c:	98 17       	cp	r25, r24
    499e:	09 f4       	brne	.+2      	; 0x49a2 <_fpadd_parts+0x3c>
    49a0:	28 c1       	rjmp	.+592    	; 0x4bf2 <_fpadd_parts+0x28c>
    49a2:	a9 e2       	ldi	r26, 0x29	; 41
    49a4:	b1 e0       	ldi	r27, 0x01	; 1
    49a6:	25 c1       	rjmp	.+586    	; 0x4bf2 <_fpadd_parts+0x28c>
    49a8:	84 30       	cpi	r24, 0x04	; 4
    49aa:	09 f4       	brne	.+2      	; 0x49ae <_fpadd_parts+0x48>
    49ac:	21 c1       	rjmp	.+578    	; 0x4bf0 <_fpadd_parts+0x28a>
    49ae:	82 30       	cpi	r24, 0x02	; 2
    49b0:	a9 f4       	brne	.+42     	; 0x49dc <_fpadd_parts+0x76>
    49b2:	92 30       	cpi	r25, 0x02	; 2
    49b4:	09 f0       	breq	.+2      	; 0x49b8 <_fpadd_parts+0x52>
    49b6:	1d c1       	rjmp	.+570    	; 0x4bf2 <_fpadd_parts+0x28c>
    49b8:	9a 01       	movw	r18, r20
    49ba:	ad 01       	movw	r20, r26
    49bc:	88 e0       	ldi	r24, 0x08	; 8
    49be:	ea 01       	movw	r28, r20
    49c0:	09 90       	ld	r0, Y+
    49c2:	ae 01       	movw	r20, r28
    49c4:	e9 01       	movw	r28, r18
    49c6:	09 92       	st	Y+, r0
    49c8:	9e 01       	movw	r18, r28
    49ca:	81 50       	subi	r24, 0x01	; 1
    49cc:	c1 f7       	brne	.-16     	; 0x49be <_fpadd_parts+0x58>
    49ce:	e2 01       	movw	r28, r4
    49d0:	89 81       	ldd	r24, Y+1	; 0x01
    49d2:	11 96       	adiw	r26, 0x01	; 1
    49d4:	9c 91       	ld	r25, X
    49d6:	89 23       	and	r24, r25
    49d8:	81 83       	std	Z+1, r24	; 0x01
    49da:	08 c1       	rjmp	.+528    	; 0x4bec <_fpadd_parts+0x286>
    49dc:	92 30       	cpi	r25, 0x02	; 2
    49de:	09 f4       	brne	.+2      	; 0x49e2 <_fpadd_parts+0x7c>
    49e0:	07 c1       	rjmp	.+526    	; 0x4bf0 <_fpadd_parts+0x28a>
    49e2:	12 96       	adiw	r26, 0x02	; 2
    49e4:	2d 90       	ld	r2, X+
    49e6:	3c 90       	ld	r3, X
    49e8:	13 97       	sbiw	r26, 0x03	; 3
    49ea:	eb 01       	movw	r28, r22
    49ec:	8a 81       	ldd	r24, Y+2	; 0x02
    49ee:	9b 81       	ldd	r25, Y+3	; 0x03
    49f0:	14 96       	adiw	r26, 0x04	; 4
    49f2:	ad 90       	ld	r10, X+
    49f4:	bd 90       	ld	r11, X+
    49f6:	cd 90       	ld	r12, X+
    49f8:	dc 90       	ld	r13, X
    49fa:	17 97       	sbiw	r26, 0x07	; 7
    49fc:	ec 80       	ldd	r14, Y+4	; 0x04
    49fe:	fd 80       	ldd	r15, Y+5	; 0x05
    4a00:	0e 81       	ldd	r16, Y+6	; 0x06
    4a02:	1f 81       	ldd	r17, Y+7	; 0x07
    4a04:	91 01       	movw	r18, r2
    4a06:	28 1b       	sub	r18, r24
    4a08:	39 0b       	sbc	r19, r25
    4a0a:	b9 01       	movw	r22, r18
    4a0c:	37 ff       	sbrs	r19, 7
    4a0e:	04 c0       	rjmp	.+8      	; 0x4a18 <_fpadd_parts+0xb2>
    4a10:	66 27       	eor	r22, r22
    4a12:	77 27       	eor	r23, r23
    4a14:	62 1b       	sub	r22, r18
    4a16:	73 0b       	sbc	r23, r19
    4a18:	60 32       	cpi	r22, 0x20	; 32
    4a1a:	71 05       	cpc	r23, r1
    4a1c:	0c f0       	brlt	.+2      	; 0x4a20 <_fpadd_parts+0xba>
    4a1e:	61 c0       	rjmp	.+194    	; 0x4ae2 <_fpadd_parts+0x17c>
    4a20:	12 16       	cp	r1, r18
    4a22:	13 06       	cpc	r1, r19
    4a24:	6c f5       	brge	.+90     	; 0x4a80 <_fpadd_parts+0x11a>
    4a26:	37 01       	movw	r6, r14
    4a28:	48 01       	movw	r8, r16
    4a2a:	06 2e       	mov	r0, r22
    4a2c:	04 c0       	rjmp	.+8      	; 0x4a36 <_fpadd_parts+0xd0>
    4a2e:	96 94       	lsr	r9
    4a30:	87 94       	ror	r8
    4a32:	77 94       	ror	r7
    4a34:	67 94       	ror	r6
    4a36:	0a 94       	dec	r0
    4a38:	d2 f7       	brpl	.-12     	; 0x4a2e <_fpadd_parts+0xc8>
    4a3a:	21 e0       	ldi	r18, 0x01	; 1
    4a3c:	30 e0       	ldi	r19, 0x00	; 0
    4a3e:	40 e0       	ldi	r20, 0x00	; 0
    4a40:	50 e0       	ldi	r21, 0x00	; 0
    4a42:	04 c0       	rjmp	.+8      	; 0x4a4c <_fpadd_parts+0xe6>
    4a44:	22 0f       	add	r18, r18
    4a46:	33 1f       	adc	r19, r19
    4a48:	44 1f       	adc	r20, r20
    4a4a:	55 1f       	adc	r21, r21
    4a4c:	6a 95       	dec	r22
    4a4e:	d2 f7       	brpl	.-12     	; 0x4a44 <_fpadd_parts+0xde>
    4a50:	21 50       	subi	r18, 0x01	; 1
    4a52:	30 40       	sbci	r19, 0x00	; 0
    4a54:	40 40       	sbci	r20, 0x00	; 0
    4a56:	50 40       	sbci	r21, 0x00	; 0
    4a58:	2e 21       	and	r18, r14
    4a5a:	3f 21       	and	r19, r15
    4a5c:	40 23       	and	r20, r16
    4a5e:	51 23       	and	r21, r17
    4a60:	21 15       	cp	r18, r1
    4a62:	31 05       	cpc	r19, r1
    4a64:	41 05       	cpc	r20, r1
    4a66:	51 05       	cpc	r21, r1
    4a68:	21 f0       	breq	.+8      	; 0x4a72 <_fpadd_parts+0x10c>
    4a6a:	21 e0       	ldi	r18, 0x01	; 1
    4a6c:	30 e0       	ldi	r19, 0x00	; 0
    4a6e:	40 e0       	ldi	r20, 0x00	; 0
    4a70:	50 e0       	ldi	r21, 0x00	; 0
    4a72:	79 01       	movw	r14, r18
    4a74:	8a 01       	movw	r16, r20
    4a76:	e6 28       	or	r14, r6
    4a78:	f7 28       	or	r15, r7
    4a7a:	08 29       	or	r16, r8
    4a7c:	19 29       	or	r17, r9
    4a7e:	3c c0       	rjmp	.+120    	; 0x4af8 <_fpadd_parts+0x192>
    4a80:	23 2b       	or	r18, r19
    4a82:	d1 f1       	breq	.+116    	; 0x4af8 <_fpadd_parts+0x192>
    4a84:	26 0e       	add	r2, r22
    4a86:	37 1e       	adc	r3, r23
    4a88:	35 01       	movw	r6, r10
    4a8a:	46 01       	movw	r8, r12
    4a8c:	06 2e       	mov	r0, r22
    4a8e:	04 c0       	rjmp	.+8      	; 0x4a98 <_fpadd_parts+0x132>
    4a90:	96 94       	lsr	r9
    4a92:	87 94       	ror	r8
    4a94:	77 94       	ror	r7
    4a96:	67 94       	ror	r6
    4a98:	0a 94       	dec	r0
    4a9a:	d2 f7       	brpl	.-12     	; 0x4a90 <_fpadd_parts+0x12a>
    4a9c:	21 e0       	ldi	r18, 0x01	; 1
    4a9e:	30 e0       	ldi	r19, 0x00	; 0
    4aa0:	40 e0       	ldi	r20, 0x00	; 0
    4aa2:	50 e0       	ldi	r21, 0x00	; 0
    4aa4:	04 c0       	rjmp	.+8      	; 0x4aae <_fpadd_parts+0x148>
    4aa6:	22 0f       	add	r18, r18
    4aa8:	33 1f       	adc	r19, r19
    4aaa:	44 1f       	adc	r20, r20
    4aac:	55 1f       	adc	r21, r21
    4aae:	6a 95       	dec	r22
    4ab0:	d2 f7       	brpl	.-12     	; 0x4aa6 <_fpadd_parts+0x140>
    4ab2:	21 50       	subi	r18, 0x01	; 1
    4ab4:	30 40       	sbci	r19, 0x00	; 0
    4ab6:	40 40       	sbci	r20, 0x00	; 0
    4ab8:	50 40       	sbci	r21, 0x00	; 0
    4aba:	2a 21       	and	r18, r10
    4abc:	3b 21       	and	r19, r11
    4abe:	4c 21       	and	r20, r12
    4ac0:	5d 21       	and	r21, r13
    4ac2:	21 15       	cp	r18, r1
    4ac4:	31 05       	cpc	r19, r1
    4ac6:	41 05       	cpc	r20, r1
    4ac8:	51 05       	cpc	r21, r1
    4aca:	21 f0       	breq	.+8      	; 0x4ad4 <_fpadd_parts+0x16e>
    4acc:	21 e0       	ldi	r18, 0x01	; 1
    4ace:	30 e0       	ldi	r19, 0x00	; 0
    4ad0:	40 e0       	ldi	r20, 0x00	; 0
    4ad2:	50 e0       	ldi	r21, 0x00	; 0
    4ad4:	59 01       	movw	r10, r18
    4ad6:	6a 01       	movw	r12, r20
    4ad8:	a6 28       	or	r10, r6
    4ada:	b7 28       	or	r11, r7
    4adc:	c8 28       	or	r12, r8
    4ade:	d9 28       	or	r13, r9
    4ae0:	0b c0       	rjmp	.+22     	; 0x4af8 <_fpadd_parts+0x192>
    4ae2:	82 15       	cp	r24, r2
    4ae4:	93 05       	cpc	r25, r3
    4ae6:	2c f0       	brlt	.+10     	; 0x4af2 <_fpadd_parts+0x18c>
    4ae8:	1c 01       	movw	r2, r24
    4aea:	aa 24       	eor	r10, r10
    4aec:	bb 24       	eor	r11, r11
    4aee:	65 01       	movw	r12, r10
    4af0:	03 c0       	rjmp	.+6      	; 0x4af8 <_fpadd_parts+0x192>
    4af2:	ee 24       	eor	r14, r14
    4af4:	ff 24       	eor	r15, r15
    4af6:	87 01       	movw	r16, r14
    4af8:	11 96       	adiw	r26, 0x01	; 1
    4afa:	9c 91       	ld	r25, X
    4afc:	d2 01       	movw	r26, r4
    4afe:	11 96       	adiw	r26, 0x01	; 1
    4b00:	8c 91       	ld	r24, X
    4b02:	98 17       	cp	r25, r24
    4b04:	09 f4       	brne	.+2      	; 0x4b08 <_fpadd_parts+0x1a2>
    4b06:	45 c0       	rjmp	.+138    	; 0x4b92 <_fpadd_parts+0x22c>
    4b08:	99 23       	and	r25, r25
    4b0a:	39 f0       	breq	.+14     	; 0x4b1a <_fpadd_parts+0x1b4>
    4b0c:	a8 01       	movw	r20, r16
    4b0e:	97 01       	movw	r18, r14
    4b10:	2a 19       	sub	r18, r10
    4b12:	3b 09       	sbc	r19, r11
    4b14:	4c 09       	sbc	r20, r12
    4b16:	5d 09       	sbc	r21, r13
    4b18:	06 c0       	rjmp	.+12     	; 0x4b26 <_fpadd_parts+0x1c0>
    4b1a:	a6 01       	movw	r20, r12
    4b1c:	95 01       	movw	r18, r10
    4b1e:	2e 19       	sub	r18, r14
    4b20:	3f 09       	sbc	r19, r15
    4b22:	40 0b       	sbc	r20, r16
    4b24:	51 0b       	sbc	r21, r17
    4b26:	57 fd       	sbrc	r21, 7
    4b28:	08 c0       	rjmp	.+16     	; 0x4b3a <_fpadd_parts+0x1d4>
    4b2a:	11 82       	std	Z+1, r1	; 0x01
    4b2c:	33 82       	std	Z+3, r3	; 0x03
    4b2e:	22 82       	std	Z+2, r2	; 0x02
    4b30:	24 83       	std	Z+4, r18	; 0x04
    4b32:	35 83       	std	Z+5, r19	; 0x05
    4b34:	46 83       	std	Z+6, r20	; 0x06
    4b36:	57 83       	std	Z+7, r21	; 0x07
    4b38:	1d c0       	rjmp	.+58     	; 0x4b74 <_fpadd_parts+0x20e>
    4b3a:	81 e0       	ldi	r24, 0x01	; 1
    4b3c:	81 83       	std	Z+1, r24	; 0x01
    4b3e:	33 82       	std	Z+3, r3	; 0x03
    4b40:	22 82       	std	Z+2, r2	; 0x02
    4b42:	88 27       	eor	r24, r24
    4b44:	99 27       	eor	r25, r25
    4b46:	dc 01       	movw	r26, r24
    4b48:	82 1b       	sub	r24, r18
    4b4a:	93 0b       	sbc	r25, r19
    4b4c:	a4 0b       	sbc	r26, r20
    4b4e:	b5 0b       	sbc	r27, r21
    4b50:	84 83       	std	Z+4, r24	; 0x04
    4b52:	95 83       	std	Z+5, r25	; 0x05
    4b54:	a6 83       	std	Z+6, r26	; 0x06
    4b56:	b7 83       	std	Z+7, r27	; 0x07
    4b58:	0d c0       	rjmp	.+26     	; 0x4b74 <_fpadd_parts+0x20e>
    4b5a:	22 0f       	add	r18, r18
    4b5c:	33 1f       	adc	r19, r19
    4b5e:	44 1f       	adc	r20, r20
    4b60:	55 1f       	adc	r21, r21
    4b62:	24 83       	std	Z+4, r18	; 0x04
    4b64:	35 83       	std	Z+5, r19	; 0x05
    4b66:	46 83       	std	Z+6, r20	; 0x06
    4b68:	57 83       	std	Z+7, r21	; 0x07
    4b6a:	82 81       	ldd	r24, Z+2	; 0x02
    4b6c:	93 81       	ldd	r25, Z+3	; 0x03
    4b6e:	01 97       	sbiw	r24, 0x01	; 1
    4b70:	93 83       	std	Z+3, r25	; 0x03
    4b72:	82 83       	std	Z+2, r24	; 0x02
    4b74:	24 81       	ldd	r18, Z+4	; 0x04
    4b76:	35 81       	ldd	r19, Z+5	; 0x05
    4b78:	46 81       	ldd	r20, Z+6	; 0x06
    4b7a:	57 81       	ldd	r21, Z+7	; 0x07
    4b7c:	da 01       	movw	r26, r20
    4b7e:	c9 01       	movw	r24, r18
    4b80:	01 97       	sbiw	r24, 0x01	; 1
    4b82:	a1 09       	sbc	r26, r1
    4b84:	b1 09       	sbc	r27, r1
    4b86:	8f 5f       	subi	r24, 0xFF	; 255
    4b88:	9f 4f       	sbci	r25, 0xFF	; 255
    4b8a:	af 4f       	sbci	r26, 0xFF	; 255
    4b8c:	bf 43       	sbci	r27, 0x3F	; 63
    4b8e:	28 f3       	brcs	.-54     	; 0x4b5a <_fpadd_parts+0x1f4>
    4b90:	0b c0       	rjmp	.+22     	; 0x4ba8 <_fpadd_parts+0x242>
    4b92:	91 83       	std	Z+1, r25	; 0x01
    4b94:	33 82       	std	Z+3, r3	; 0x03
    4b96:	22 82       	std	Z+2, r2	; 0x02
    4b98:	ea 0c       	add	r14, r10
    4b9a:	fb 1c       	adc	r15, r11
    4b9c:	0c 1d       	adc	r16, r12
    4b9e:	1d 1d       	adc	r17, r13
    4ba0:	e4 82       	std	Z+4, r14	; 0x04
    4ba2:	f5 82       	std	Z+5, r15	; 0x05
    4ba4:	06 83       	std	Z+6, r16	; 0x06
    4ba6:	17 83       	std	Z+7, r17	; 0x07
    4ba8:	83 e0       	ldi	r24, 0x03	; 3
    4baa:	80 83       	st	Z, r24
    4bac:	24 81       	ldd	r18, Z+4	; 0x04
    4bae:	35 81       	ldd	r19, Z+5	; 0x05
    4bb0:	46 81       	ldd	r20, Z+6	; 0x06
    4bb2:	57 81       	ldd	r21, Z+7	; 0x07
    4bb4:	57 ff       	sbrs	r21, 7
    4bb6:	1a c0       	rjmp	.+52     	; 0x4bec <_fpadd_parts+0x286>
    4bb8:	c9 01       	movw	r24, r18
    4bba:	aa 27       	eor	r26, r26
    4bbc:	97 fd       	sbrc	r25, 7
    4bbe:	a0 95       	com	r26
    4bc0:	ba 2f       	mov	r27, r26
    4bc2:	81 70       	andi	r24, 0x01	; 1
    4bc4:	90 70       	andi	r25, 0x00	; 0
    4bc6:	a0 70       	andi	r26, 0x00	; 0
    4bc8:	b0 70       	andi	r27, 0x00	; 0
    4bca:	56 95       	lsr	r21
    4bcc:	47 95       	ror	r20
    4bce:	37 95       	ror	r19
    4bd0:	27 95       	ror	r18
    4bd2:	82 2b       	or	r24, r18
    4bd4:	93 2b       	or	r25, r19
    4bd6:	a4 2b       	or	r26, r20
    4bd8:	b5 2b       	or	r27, r21
    4bda:	84 83       	std	Z+4, r24	; 0x04
    4bdc:	95 83       	std	Z+5, r25	; 0x05
    4bde:	a6 83       	std	Z+6, r26	; 0x06
    4be0:	b7 83       	std	Z+7, r27	; 0x07
    4be2:	82 81       	ldd	r24, Z+2	; 0x02
    4be4:	93 81       	ldd	r25, Z+3	; 0x03
    4be6:	01 96       	adiw	r24, 0x01	; 1
    4be8:	93 83       	std	Z+3, r25	; 0x03
    4bea:	82 83       	std	Z+2, r24	; 0x02
    4bec:	df 01       	movw	r26, r30
    4bee:	01 c0       	rjmp	.+2      	; 0x4bf2 <_fpadd_parts+0x28c>
    4bf0:	d2 01       	movw	r26, r4
    4bf2:	cd 01       	movw	r24, r26
    4bf4:	cd b7       	in	r28, 0x3d	; 61
    4bf6:	de b7       	in	r29, 0x3e	; 62
    4bf8:	e2 e1       	ldi	r30, 0x12	; 18
    4bfa:	0c 94 68 2a 	jmp	0x54d0	; 0x54d0 <__epilogue_restores__>

00004bfe <__subsf3>:
    4bfe:	a0 e2       	ldi	r26, 0x20	; 32
    4c00:	b0 e0       	ldi	r27, 0x00	; 0
    4c02:	e5 e0       	ldi	r30, 0x05	; 5
    4c04:	f6 e2       	ldi	r31, 0x26	; 38
    4c06:	0c 94 58 2a 	jmp	0x54b0	; 0x54b0 <__prologue_saves__+0x18>
    4c0a:	69 83       	std	Y+1, r22	; 0x01
    4c0c:	7a 83       	std	Y+2, r23	; 0x02
    4c0e:	8b 83       	std	Y+3, r24	; 0x03
    4c10:	9c 83       	std	Y+4, r25	; 0x04
    4c12:	2d 83       	std	Y+5, r18	; 0x05
    4c14:	3e 83       	std	Y+6, r19	; 0x06
    4c16:	4f 83       	std	Y+7, r20	; 0x07
    4c18:	58 87       	std	Y+8, r21	; 0x08
    4c1a:	e9 e0       	ldi	r30, 0x09	; 9
    4c1c:	ee 2e       	mov	r14, r30
    4c1e:	f1 2c       	mov	r15, r1
    4c20:	ec 0e       	add	r14, r28
    4c22:	fd 1e       	adc	r15, r29
    4c24:	ce 01       	movw	r24, r28
    4c26:	01 96       	adiw	r24, 0x01	; 1
    4c28:	b7 01       	movw	r22, r14
    4c2a:	0e 94 5c 29 	call	0x52b8	; 0x52b8 <__unpack_f>
    4c2e:	8e 01       	movw	r16, r28
    4c30:	0f 5e       	subi	r16, 0xEF	; 239
    4c32:	1f 4f       	sbci	r17, 0xFF	; 255
    4c34:	ce 01       	movw	r24, r28
    4c36:	05 96       	adiw	r24, 0x05	; 5
    4c38:	b8 01       	movw	r22, r16
    4c3a:	0e 94 5c 29 	call	0x52b8	; 0x52b8 <__unpack_f>
    4c3e:	8a 89       	ldd	r24, Y+18	; 0x12
    4c40:	91 e0       	ldi	r25, 0x01	; 1
    4c42:	89 27       	eor	r24, r25
    4c44:	8a 8b       	std	Y+18, r24	; 0x12
    4c46:	c7 01       	movw	r24, r14
    4c48:	b8 01       	movw	r22, r16
    4c4a:	ae 01       	movw	r20, r28
    4c4c:	47 5e       	subi	r20, 0xE7	; 231
    4c4e:	5f 4f       	sbci	r21, 0xFF	; 255
    4c50:	0e 94 b3 24 	call	0x4966	; 0x4966 <_fpadd_parts>
    4c54:	0e 94 87 28 	call	0x510e	; 0x510e <__pack_f>
    4c58:	a0 96       	adiw	r28, 0x20	; 32
    4c5a:	e6 e0       	ldi	r30, 0x06	; 6
    4c5c:	0c 94 74 2a 	jmp	0x54e8	; 0x54e8 <__epilogue_restores__+0x18>

00004c60 <__addsf3>:
    4c60:	a0 e2       	ldi	r26, 0x20	; 32
    4c62:	b0 e0       	ldi	r27, 0x00	; 0
    4c64:	e6 e3       	ldi	r30, 0x36	; 54
    4c66:	f6 e2       	ldi	r31, 0x26	; 38
    4c68:	0c 94 58 2a 	jmp	0x54b0	; 0x54b0 <__prologue_saves__+0x18>
    4c6c:	69 83       	std	Y+1, r22	; 0x01
    4c6e:	7a 83       	std	Y+2, r23	; 0x02
    4c70:	8b 83       	std	Y+3, r24	; 0x03
    4c72:	9c 83       	std	Y+4, r25	; 0x04
    4c74:	2d 83       	std	Y+5, r18	; 0x05
    4c76:	3e 83       	std	Y+6, r19	; 0x06
    4c78:	4f 83       	std	Y+7, r20	; 0x07
    4c7a:	58 87       	std	Y+8, r21	; 0x08
    4c7c:	f9 e0       	ldi	r31, 0x09	; 9
    4c7e:	ef 2e       	mov	r14, r31
    4c80:	f1 2c       	mov	r15, r1
    4c82:	ec 0e       	add	r14, r28
    4c84:	fd 1e       	adc	r15, r29
    4c86:	ce 01       	movw	r24, r28
    4c88:	01 96       	adiw	r24, 0x01	; 1
    4c8a:	b7 01       	movw	r22, r14
    4c8c:	0e 94 5c 29 	call	0x52b8	; 0x52b8 <__unpack_f>
    4c90:	8e 01       	movw	r16, r28
    4c92:	0f 5e       	subi	r16, 0xEF	; 239
    4c94:	1f 4f       	sbci	r17, 0xFF	; 255
    4c96:	ce 01       	movw	r24, r28
    4c98:	05 96       	adiw	r24, 0x05	; 5
    4c9a:	b8 01       	movw	r22, r16
    4c9c:	0e 94 5c 29 	call	0x52b8	; 0x52b8 <__unpack_f>
    4ca0:	c7 01       	movw	r24, r14
    4ca2:	b8 01       	movw	r22, r16
    4ca4:	ae 01       	movw	r20, r28
    4ca6:	47 5e       	subi	r20, 0xE7	; 231
    4ca8:	5f 4f       	sbci	r21, 0xFF	; 255
    4caa:	0e 94 b3 24 	call	0x4966	; 0x4966 <_fpadd_parts>
    4cae:	0e 94 87 28 	call	0x510e	; 0x510e <__pack_f>
    4cb2:	a0 96       	adiw	r28, 0x20	; 32
    4cb4:	e6 e0       	ldi	r30, 0x06	; 6
    4cb6:	0c 94 74 2a 	jmp	0x54e8	; 0x54e8 <__epilogue_restores__+0x18>

00004cba <__mulsf3>:
    4cba:	a0 e2       	ldi	r26, 0x20	; 32
    4cbc:	b0 e0       	ldi	r27, 0x00	; 0
    4cbe:	e3 e6       	ldi	r30, 0x63	; 99
    4cc0:	f6 e2       	ldi	r31, 0x26	; 38
    4cc2:	0c 94 4c 2a 	jmp	0x5498	; 0x5498 <__prologue_saves__>
    4cc6:	69 83       	std	Y+1, r22	; 0x01
    4cc8:	7a 83       	std	Y+2, r23	; 0x02
    4cca:	8b 83       	std	Y+3, r24	; 0x03
    4ccc:	9c 83       	std	Y+4, r25	; 0x04
    4cce:	2d 83       	std	Y+5, r18	; 0x05
    4cd0:	3e 83       	std	Y+6, r19	; 0x06
    4cd2:	4f 83       	std	Y+7, r20	; 0x07
    4cd4:	58 87       	std	Y+8, r21	; 0x08
    4cd6:	ce 01       	movw	r24, r28
    4cd8:	01 96       	adiw	r24, 0x01	; 1
    4cda:	be 01       	movw	r22, r28
    4cdc:	67 5f       	subi	r22, 0xF7	; 247
    4cde:	7f 4f       	sbci	r23, 0xFF	; 255
    4ce0:	0e 94 5c 29 	call	0x52b8	; 0x52b8 <__unpack_f>
    4ce4:	ce 01       	movw	r24, r28
    4ce6:	05 96       	adiw	r24, 0x05	; 5
    4ce8:	be 01       	movw	r22, r28
    4cea:	6f 5e       	subi	r22, 0xEF	; 239
    4cec:	7f 4f       	sbci	r23, 0xFF	; 255
    4cee:	0e 94 5c 29 	call	0x52b8	; 0x52b8 <__unpack_f>
    4cf2:	99 85       	ldd	r25, Y+9	; 0x09
    4cf4:	92 30       	cpi	r25, 0x02	; 2
    4cf6:	88 f0       	brcs	.+34     	; 0x4d1a <__mulsf3+0x60>
    4cf8:	89 89       	ldd	r24, Y+17	; 0x11
    4cfa:	82 30       	cpi	r24, 0x02	; 2
    4cfc:	c8 f0       	brcs	.+50     	; 0x4d30 <__mulsf3+0x76>
    4cfe:	94 30       	cpi	r25, 0x04	; 4
    4d00:	19 f4       	brne	.+6      	; 0x4d08 <__mulsf3+0x4e>
    4d02:	82 30       	cpi	r24, 0x02	; 2
    4d04:	51 f4       	brne	.+20     	; 0x4d1a <__mulsf3+0x60>
    4d06:	04 c0       	rjmp	.+8      	; 0x4d10 <__mulsf3+0x56>
    4d08:	84 30       	cpi	r24, 0x04	; 4
    4d0a:	29 f4       	brne	.+10     	; 0x4d16 <__mulsf3+0x5c>
    4d0c:	92 30       	cpi	r25, 0x02	; 2
    4d0e:	81 f4       	brne	.+32     	; 0x4d30 <__mulsf3+0x76>
    4d10:	89 e2       	ldi	r24, 0x29	; 41
    4d12:	91 e0       	ldi	r25, 0x01	; 1
    4d14:	c6 c0       	rjmp	.+396    	; 0x4ea2 <__mulsf3+0x1e8>
    4d16:	92 30       	cpi	r25, 0x02	; 2
    4d18:	49 f4       	brne	.+18     	; 0x4d2c <__mulsf3+0x72>
    4d1a:	20 e0       	ldi	r18, 0x00	; 0
    4d1c:	9a 85       	ldd	r25, Y+10	; 0x0a
    4d1e:	8a 89       	ldd	r24, Y+18	; 0x12
    4d20:	98 13       	cpse	r25, r24
    4d22:	21 e0       	ldi	r18, 0x01	; 1
    4d24:	2a 87       	std	Y+10, r18	; 0x0a
    4d26:	ce 01       	movw	r24, r28
    4d28:	09 96       	adiw	r24, 0x09	; 9
    4d2a:	bb c0       	rjmp	.+374    	; 0x4ea2 <__mulsf3+0x1e8>
    4d2c:	82 30       	cpi	r24, 0x02	; 2
    4d2e:	49 f4       	brne	.+18     	; 0x4d42 <__mulsf3+0x88>
    4d30:	20 e0       	ldi	r18, 0x00	; 0
    4d32:	9a 85       	ldd	r25, Y+10	; 0x0a
    4d34:	8a 89       	ldd	r24, Y+18	; 0x12
    4d36:	98 13       	cpse	r25, r24
    4d38:	21 e0       	ldi	r18, 0x01	; 1
    4d3a:	2a 8b       	std	Y+18, r18	; 0x12
    4d3c:	ce 01       	movw	r24, r28
    4d3e:	41 96       	adiw	r24, 0x11	; 17
    4d40:	b0 c0       	rjmp	.+352    	; 0x4ea2 <__mulsf3+0x1e8>
    4d42:	2d 84       	ldd	r2, Y+13	; 0x0d
    4d44:	3e 84       	ldd	r3, Y+14	; 0x0e
    4d46:	4f 84       	ldd	r4, Y+15	; 0x0f
    4d48:	58 88       	ldd	r5, Y+16	; 0x10
    4d4a:	6d 88       	ldd	r6, Y+21	; 0x15
    4d4c:	7e 88       	ldd	r7, Y+22	; 0x16
    4d4e:	8f 88       	ldd	r8, Y+23	; 0x17
    4d50:	98 8c       	ldd	r9, Y+24	; 0x18
    4d52:	ee 24       	eor	r14, r14
    4d54:	ff 24       	eor	r15, r15
    4d56:	87 01       	movw	r16, r14
    4d58:	aa 24       	eor	r10, r10
    4d5a:	bb 24       	eor	r11, r11
    4d5c:	65 01       	movw	r12, r10
    4d5e:	40 e0       	ldi	r20, 0x00	; 0
    4d60:	50 e0       	ldi	r21, 0x00	; 0
    4d62:	60 e0       	ldi	r22, 0x00	; 0
    4d64:	70 e0       	ldi	r23, 0x00	; 0
    4d66:	e0 e0       	ldi	r30, 0x00	; 0
    4d68:	f0 e0       	ldi	r31, 0x00	; 0
    4d6a:	c1 01       	movw	r24, r2
    4d6c:	81 70       	andi	r24, 0x01	; 1
    4d6e:	90 70       	andi	r25, 0x00	; 0
    4d70:	89 2b       	or	r24, r25
    4d72:	e9 f0       	breq	.+58     	; 0x4dae <__mulsf3+0xf4>
    4d74:	e6 0c       	add	r14, r6
    4d76:	f7 1c       	adc	r15, r7
    4d78:	08 1d       	adc	r16, r8
    4d7a:	19 1d       	adc	r17, r9
    4d7c:	9a 01       	movw	r18, r20
    4d7e:	ab 01       	movw	r20, r22
    4d80:	2a 0d       	add	r18, r10
    4d82:	3b 1d       	adc	r19, r11
    4d84:	4c 1d       	adc	r20, r12
    4d86:	5d 1d       	adc	r21, r13
    4d88:	80 e0       	ldi	r24, 0x00	; 0
    4d8a:	90 e0       	ldi	r25, 0x00	; 0
    4d8c:	a0 e0       	ldi	r26, 0x00	; 0
    4d8e:	b0 e0       	ldi	r27, 0x00	; 0
    4d90:	e6 14       	cp	r14, r6
    4d92:	f7 04       	cpc	r15, r7
    4d94:	08 05       	cpc	r16, r8
    4d96:	19 05       	cpc	r17, r9
    4d98:	20 f4       	brcc	.+8      	; 0x4da2 <__mulsf3+0xe8>
    4d9a:	81 e0       	ldi	r24, 0x01	; 1
    4d9c:	90 e0       	ldi	r25, 0x00	; 0
    4d9e:	a0 e0       	ldi	r26, 0x00	; 0
    4da0:	b0 e0       	ldi	r27, 0x00	; 0
    4da2:	ba 01       	movw	r22, r20
    4da4:	a9 01       	movw	r20, r18
    4da6:	48 0f       	add	r20, r24
    4da8:	59 1f       	adc	r21, r25
    4daa:	6a 1f       	adc	r22, r26
    4dac:	7b 1f       	adc	r23, r27
    4dae:	aa 0c       	add	r10, r10
    4db0:	bb 1c       	adc	r11, r11
    4db2:	cc 1c       	adc	r12, r12
    4db4:	dd 1c       	adc	r13, r13
    4db6:	97 fe       	sbrs	r9, 7
    4db8:	08 c0       	rjmp	.+16     	; 0x4dca <__mulsf3+0x110>
    4dba:	81 e0       	ldi	r24, 0x01	; 1
    4dbc:	90 e0       	ldi	r25, 0x00	; 0
    4dbe:	a0 e0       	ldi	r26, 0x00	; 0
    4dc0:	b0 e0       	ldi	r27, 0x00	; 0
    4dc2:	a8 2a       	or	r10, r24
    4dc4:	b9 2a       	or	r11, r25
    4dc6:	ca 2a       	or	r12, r26
    4dc8:	db 2a       	or	r13, r27
    4dca:	31 96       	adiw	r30, 0x01	; 1
    4dcc:	e0 32       	cpi	r30, 0x20	; 32
    4dce:	f1 05       	cpc	r31, r1
    4dd0:	49 f0       	breq	.+18     	; 0x4de4 <__mulsf3+0x12a>
    4dd2:	66 0c       	add	r6, r6
    4dd4:	77 1c       	adc	r7, r7
    4dd6:	88 1c       	adc	r8, r8
    4dd8:	99 1c       	adc	r9, r9
    4dda:	56 94       	lsr	r5
    4ddc:	47 94       	ror	r4
    4dde:	37 94       	ror	r3
    4de0:	27 94       	ror	r2
    4de2:	c3 cf       	rjmp	.-122    	; 0x4d6a <__mulsf3+0xb0>
    4de4:	fa 85       	ldd	r31, Y+10	; 0x0a
    4de6:	ea 89       	ldd	r30, Y+18	; 0x12
    4de8:	2b 89       	ldd	r18, Y+19	; 0x13
    4dea:	3c 89       	ldd	r19, Y+20	; 0x14
    4dec:	8b 85       	ldd	r24, Y+11	; 0x0b
    4dee:	9c 85       	ldd	r25, Y+12	; 0x0c
    4df0:	28 0f       	add	r18, r24
    4df2:	39 1f       	adc	r19, r25
    4df4:	2e 5f       	subi	r18, 0xFE	; 254
    4df6:	3f 4f       	sbci	r19, 0xFF	; 255
    4df8:	17 c0       	rjmp	.+46     	; 0x4e28 <__mulsf3+0x16e>
    4dfa:	ca 01       	movw	r24, r20
    4dfc:	81 70       	andi	r24, 0x01	; 1
    4dfe:	90 70       	andi	r25, 0x00	; 0
    4e00:	89 2b       	or	r24, r25
    4e02:	61 f0       	breq	.+24     	; 0x4e1c <__mulsf3+0x162>
    4e04:	16 95       	lsr	r17
    4e06:	07 95       	ror	r16
    4e08:	f7 94       	ror	r15
    4e0a:	e7 94       	ror	r14
    4e0c:	80 e0       	ldi	r24, 0x00	; 0
    4e0e:	90 e0       	ldi	r25, 0x00	; 0
    4e10:	a0 e0       	ldi	r26, 0x00	; 0
    4e12:	b0 e8       	ldi	r27, 0x80	; 128
    4e14:	e8 2a       	or	r14, r24
    4e16:	f9 2a       	or	r15, r25
    4e18:	0a 2b       	or	r16, r26
    4e1a:	1b 2b       	or	r17, r27
    4e1c:	76 95       	lsr	r23
    4e1e:	67 95       	ror	r22
    4e20:	57 95       	ror	r21
    4e22:	47 95       	ror	r20
    4e24:	2f 5f       	subi	r18, 0xFF	; 255
    4e26:	3f 4f       	sbci	r19, 0xFF	; 255
    4e28:	77 fd       	sbrc	r23, 7
    4e2a:	e7 cf       	rjmp	.-50     	; 0x4dfa <__mulsf3+0x140>
    4e2c:	0c c0       	rjmp	.+24     	; 0x4e46 <__mulsf3+0x18c>
    4e2e:	44 0f       	add	r20, r20
    4e30:	55 1f       	adc	r21, r21
    4e32:	66 1f       	adc	r22, r22
    4e34:	77 1f       	adc	r23, r23
    4e36:	17 fd       	sbrc	r17, 7
    4e38:	41 60       	ori	r20, 0x01	; 1
    4e3a:	ee 0c       	add	r14, r14
    4e3c:	ff 1c       	adc	r15, r15
    4e3e:	00 1f       	adc	r16, r16
    4e40:	11 1f       	adc	r17, r17
    4e42:	21 50       	subi	r18, 0x01	; 1
    4e44:	30 40       	sbci	r19, 0x00	; 0
    4e46:	40 30       	cpi	r20, 0x00	; 0
    4e48:	90 e0       	ldi	r25, 0x00	; 0
    4e4a:	59 07       	cpc	r21, r25
    4e4c:	90 e0       	ldi	r25, 0x00	; 0
    4e4e:	69 07       	cpc	r22, r25
    4e50:	90 e4       	ldi	r25, 0x40	; 64
    4e52:	79 07       	cpc	r23, r25
    4e54:	60 f3       	brcs	.-40     	; 0x4e2e <__mulsf3+0x174>
    4e56:	2b 8f       	std	Y+27, r18	; 0x1b
    4e58:	3c 8f       	std	Y+28, r19	; 0x1c
    4e5a:	db 01       	movw	r26, r22
    4e5c:	ca 01       	movw	r24, r20
    4e5e:	8f 77       	andi	r24, 0x7F	; 127
    4e60:	90 70       	andi	r25, 0x00	; 0
    4e62:	a0 70       	andi	r26, 0x00	; 0
    4e64:	b0 70       	andi	r27, 0x00	; 0
    4e66:	80 34       	cpi	r24, 0x40	; 64
    4e68:	91 05       	cpc	r25, r1
    4e6a:	a1 05       	cpc	r26, r1
    4e6c:	b1 05       	cpc	r27, r1
    4e6e:	61 f4       	brne	.+24     	; 0x4e88 <__mulsf3+0x1ce>
    4e70:	47 fd       	sbrc	r20, 7
    4e72:	0a c0       	rjmp	.+20     	; 0x4e88 <__mulsf3+0x1ce>
    4e74:	e1 14       	cp	r14, r1
    4e76:	f1 04       	cpc	r15, r1
    4e78:	01 05       	cpc	r16, r1
    4e7a:	11 05       	cpc	r17, r1
    4e7c:	29 f0       	breq	.+10     	; 0x4e88 <__mulsf3+0x1ce>
    4e7e:	40 5c       	subi	r20, 0xC0	; 192
    4e80:	5f 4f       	sbci	r21, 0xFF	; 255
    4e82:	6f 4f       	sbci	r22, 0xFF	; 255
    4e84:	7f 4f       	sbci	r23, 0xFF	; 255
    4e86:	40 78       	andi	r20, 0x80	; 128
    4e88:	1a 8e       	std	Y+26, r1	; 0x1a
    4e8a:	fe 17       	cp	r31, r30
    4e8c:	11 f0       	breq	.+4      	; 0x4e92 <__mulsf3+0x1d8>
    4e8e:	81 e0       	ldi	r24, 0x01	; 1
    4e90:	8a 8f       	std	Y+26, r24	; 0x1a
    4e92:	4d 8f       	std	Y+29, r20	; 0x1d
    4e94:	5e 8f       	std	Y+30, r21	; 0x1e
    4e96:	6f 8f       	std	Y+31, r22	; 0x1f
    4e98:	78 a3       	std	Y+32, r23	; 0x20
    4e9a:	83 e0       	ldi	r24, 0x03	; 3
    4e9c:	89 8f       	std	Y+25, r24	; 0x19
    4e9e:	ce 01       	movw	r24, r28
    4ea0:	49 96       	adiw	r24, 0x19	; 25
    4ea2:	0e 94 87 28 	call	0x510e	; 0x510e <__pack_f>
    4ea6:	a0 96       	adiw	r28, 0x20	; 32
    4ea8:	e2 e1       	ldi	r30, 0x12	; 18
    4eaa:	0c 94 68 2a 	jmp	0x54d0	; 0x54d0 <__epilogue_restores__>

00004eae <__divsf3>:
    4eae:	a8 e1       	ldi	r26, 0x18	; 24
    4eb0:	b0 e0       	ldi	r27, 0x00	; 0
    4eb2:	ed e5       	ldi	r30, 0x5D	; 93
    4eb4:	f7 e2       	ldi	r31, 0x27	; 39
    4eb6:	0c 94 54 2a 	jmp	0x54a8	; 0x54a8 <__prologue_saves__+0x10>
    4eba:	69 83       	std	Y+1, r22	; 0x01
    4ebc:	7a 83       	std	Y+2, r23	; 0x02
    4ebe:	8b 83       	std	Y+3, r24	; 0x03
    4ec0:	9c 83       	std	Y+4, r25	; 0x04
    4ec2:	2d 83       	std	Y+5, r18	; 0x05
    4ec4:	3e 83       	std	Y+6, r19	; 0x06
    4ec6:	4f 83       	std	Y+7, r20	; 0x07
    4ec8:	58 87       	std	Y+8, r21	; 0x08
    4eca:	b9 e0       	ldi	r27, 0x09	; 9
    4ecc:	eb 2e       	mov	r14, r27
    4ece:	f1 2c       	mov	r15, r1
    4ed0:	ec 0e       	add	r14, r28
    4ed2:	fd 1e       	adc	r15, r29
    4ed4:	ce 01       	movw	r24, r28
    4ed6:	01 96       	adiw	r24, 0x01	; 1
    4ed8:	b7 01       	movw	r22, r14
    4eda:	0e 94 5c 29 	call	0x52b8	; 0x52b8 <__unpack_f>
    4ede:	8e 01       	movw	r16, r28
    4ee0:	0f 5e       	subi	r16, 0xEF	; 239
    4ee2:	1f 4f       	sbci	r17, 0xFF	; 255
    4ee4:	ce 01       	movw	r24, r28
    4ee6:	05 96       	adiw	r24, 0x05	; 5
    4ee8:	b8 01       	movw	r22, r16
    4eea:	0e 94 5c 29 	call	0x52b8	; 0x52b8 <__unpack_f>
    4eee:	29 85       	ldd	r18, Y+9	; 0x09
    4ef0:	22 30       	cpi	r18, 0x02	; 2
    4ef2:	08 f4       	brcc	.+2      	; 0x4ef6 <__divsf3+0x48>
    4ef4:	7e c0       	rjmp	.+252    	; 0x4ff2 <__divsf3+0x144>
    4ef6:	39 89       	ldd	r19, Y+17	; 0x11
    4ef8:	32 30       	cpi	r19, 0x02	; 2
    4efa:	10 f4       	brcc	.+4      	; 0x4f00 <__divsf3+0x52>
    4efc:	b8 01       	movw	r22, r16
    4efe:	7c c0       	rjmp	.+248    	; 0x4ff8 <__divsf3+0x14a>
    4f00:	8a 85       	ldd	r24, Y+10	; 0x0a
    4f02:	9a 89       	ldd	r25, Y+18	; 0x12
    4f04:	89 27       	eor	r24, r25
    4f06:	8a 87       	std	Y+10, r24	; 0x0a
    4f08:	24 30       	cpi	r18, 0x04	; 4
    4f0a:	11 f0       	breq	.+4      	; 0x4f10 <__divsf3+0x62>
    4f0c:	22 30       	cpi	r18, 0x02	; 2
    4f0e:	31 f4       	brne	.+12     	; 0x4f1c <__divsf3+0x6e>
    4f10:	23 17       	cp	r18, r19
    4f12:	09 f0       	breq	.+2      	; 0x4f16 <__divsf3+0x68>
    4f14:	6e c0       	rjmp	.+220    	; 0x4ff2 <__divsf3+0x144>
    4f16:	69 e2       	ldi	r22, 0x29	; 41
    4f18:	71 e0       	ldi	r23, 0x01	; 1
    4f1a:	6e c0       	rjmp	.+220    	; 0x4ff8 <__divsf3+0x14a>
    4f1c:	34 30       	cpi	r19, 0x04	; 4
    4f1e:	39 f4       	brne	.+14     	; 0x4f2e <__divsf3+0x80>
    4f20:	1d 86       	std	Y+13, r1	; 0x0d
    4f22:	1e 86       	std	Y+14, r1	; 0x0e
    4f24:	1f 86       	std	Y+15, r1	; 0x0f
    4f26:	18 8a       	std	Y+16, r1	; 0x10
    4f28:	1c 86       	std	Y+12, r1	; 0x0c
    4f2a:	1b 86       	std	Y+11, r1	; 0x0b
    4f2c:	04 c0       	rjmp	.+8      	; 0x4f36 <__divsf3+0x88>
    4f2e:	32 30       	cpi	r19, 0x02	; 2
    4f30:	21 f4       	brne	.+8      	; 0x4f3a <__divsf3+0x8c>
    4f32:	84 e0       	ldi	r24, 0x04	; 4
    4f34:	89 87       	std	Y+9, r24	; 0x09
    4f36:	b7 01       	movw	r22, r14
    4f38:	5f c0       	rjmp	.+190    	; 0x4ff8 <__divsf3+0x14a>
    4f3a:	2b 85       	ldd	r18, Y+11	; 0x0b
    4f3c:	3c 85       	ldd	r19, Y+12	; 0x0c
    4f3e:	8b 89       	ldd	r24, Y+19	; 0x13
    4f40:	9c 89       	ldd	r25, Y+20	; 0x14
    4f42:	28 1b       	sub	r18, r24
    4f44:	39 0b       	sbc	r19, r25
    4f46:	3c 87       	std	Y+12, r19	; 0x0c
    4f48:	2b 87       	std	Y+11, r18	; 0x0b
    4f4a:	ed 84       	ldd	r14, Y+13	; 0x0d
    4f4c:	fe 84       	ldd	r15, Y+14	; 0x0e
    4f4e:	0f 85       	ldd	r16, Y+15	; 0x0f
    4f50:	18 89       	ldd	r17, Y+16	; 0x10
    4f52:	ad 88       	ldd	r10, Y+21	; 0x15
    4f54:	be 88       	ldd	r11, Y+22	; 0x16
    4f56:	cf 88       	ldd	r12, Y+23	; 0x17
    4f58:	d8 8c       	ldd	r13, Y+24	; 0x18
    4f5a:	ea 14       	cp	r14, r10
    4f5c:	fb 04       	cpc	r15, r11
    4f5e:	0c 05       	cpc	r16, r12
    4f60:	1d 05       	cpc	r17, r13
    4f62:	40 f4       	brcc	.+16     	; 0x4f74 <__divsf3+0xc6>
    4f64:	ee 0c       	add	r14, r14
    4f66:	ff 1c       	adc	r15, r15
    4f68:	00 1f       	adc	r16, r16
    4f6a:	11 1f       	adc	r17, r17
    4f6c:	21 50       	subi	r18, 0x01	; 1
    4f6e:	30 40       	sbci	r19, 0x00	; 0
    4f70:	3c 87       	std	Y+12, r19	; 0x0c
    4f72:	2b 87       	std	Y+11, r18	; 0x0b
    4f74:	20 e0       	ldi	r18, 0x00	; 0
    4f76:	30 e0       	ldi	r19, 0x00	; 0
    4f78:	40 e0       	ldi	r20, 0x00	; 0
    4f7a:	50 e0       	ldi	r21, 0x00	; 0
    4f7c:	80 e0       	ldi	r24, 0x00	; 0
    4f7e:	90 e0       	ldi	r25, 0x00	; 0
    4f80:	a0 e0       	ldi	r26, 0x00	; 0
    4f82:	b0 e4       	ldi	r27, 0x40	; 64
    4f84:	60 e0       	ldi	r22, 0x00	; 0
    4f86:	70 e0       	ldi	r23, 0x00	; 0
    4f88:	ea 14       	cp	r14, r10
    4f8a:	fb 04       	cpc	r15, r11
    4f8c:	0c 05       	cpc	r16, r12
    4f8e:	1d 05       	cpc	r17, r13
    4f90:	40 f0       	brcs	.+16     	; 0x4fa2 <__divsf3+0xf4>
    4f92:	28 2b       	or	r18, r24
    4f94:	39 2b       	or	r19, r25
    4f96:	4a 2b       	or	r20, r26
    4f98:	5b 2b       	or	r21, r27
    4f9a:	ea 18       	sub	r14, r10
    4f9c:	fb 08       	sbc	r15, r11
    4f9e:	0c 09       	sbc	r16, r12
    4fa0:	1d 09       	sbc	r17, r13
    4fa2:	b6 95       	lsr	r27
    4fa4:	a7 95       	ror	r26
    4fa6:	97 95       	ror	r25
    4fa8:	87 95       	ror	r24
    4faa:	ee 0c       	add	r14, r14
    4fac:	ff 1c       	adc	r15, r15
    4fae:	00 1f       	adc	r16, r16
    4fb0:	11 1f       	adc	r17, r17
    4fb2:	6f 5f       	subi	r22, 0xFF	; 255
    4fb4:	7f 4f       	sbci	r23, 0xFF	; 255
    4fb6:	6f 31       	cpi	r22, 0x1F	; 31
    4fb8:	71 05       	cpc	r23, r1
    4fba:	31 f7       	brne	.-52     	; 0x4f88 <__divsf3+0xda>
    4fbc:	da 01       	movw	r26, r20
    4fbe:	c9 01       	movw	r24, r18
    4fc0:	8f 77       	andi	r24, 0x7F	; 127
    4fc2:	90 70       	andi	r25, 0x00	; 0
    4fc4:	a0 70       	andi	r26, 0x00	; 0
    4fc6:	b0 70       	andi	r27, 0x00	; 0
    4fc8:	80 34       	cpi	r24, 0x40	; 64
    4fca:	91 05       	cpc	r25, r1
    4fcc:	a1 05       	cpc	r26, r1
    4fce:	b1 05       	cpc	r27, r1
    4fd0:	61 f4       	brne	.+24     	; 0x4fea <__divsf3+0x13c>
    4fd2:	27 fd       	sbrc	r18, 7
    4fd4:	0a c0       	rjmp	.+20     	; 0x4fea <__divsf3+0x13c>
    4fd6:	e1 14       	cp	r14, r1
    4fd8:	f1 04       	cpc	r15, r1
    4fda:	01 05       	cpc	r16, r1
    4fdc:	11 05       	cpc	r17, r1
    4fde:	29 f0       	breq	.+10     	; 0x4fea <__divsf3+0x13c>
    4fe0:	20 5c       	subi	r18, 0xC0	; 192
    4fe2:	3f 4f       	sbci	r19, 0xFF	; 255
    4fe4:	4f 4f       	sbci	r20, 0xFF	; 255
    4fe6:	5f 4f       	sbci	r21, 0xFF	; 255
    4fe8:	20 78       	andi	r18, 0x80	; 128
    4fea:	2d 87       	std	Y+13, r18	; 0x0d
    4fec:	3e 87       	std	Y+14, r19	; 0x0e
    4fee:	4f 87       	std	Y+15, r20	; 0x0f
    4ff0:	58 8b       	std	Y+16, r21	; 0x10
    4ff2:	be 01       	movw	r22, r28
    4ff4:	67 5f       	subi	r22, 0xF7	; 247
    4ff6:	7f 4f       	sbci	r23, 0xFF	; 255
    4ff8:	cb 01       	movw	r24, r22
    4ffa:	0e 94 87 28 	call	0x510e	; 0x510e <__pack_f>
    4ffe:	68 96       	adiw	r28, 0x18	; 24
    5000:	ea e0       	ldi	r30, 0x0A	; 10
    5002:	0c 94 70 2a 	jmp	0x54e0	; 0x54e0 <__epilogue_restores__+0x10>

00005006 <__gesf2>:
    5006:	a8 e1       	ldi	r26, 0x18	; 24
    5008:	b0 e0       	ldi	r27, 0x00	; 0
    500a:	e9 e0       	ldi	r30, 0x09	; 9
    500c:	f8 e2       	ldi	r31, 0x28	; 40
    500e:	0c 94 58 2a 	jmp	0x54b0	; 0x54b0 <__prologue_saves__+0x18>
    5012:	69 83       	std	Y+1, r22	; 0x01
    5014:	7a 83       	std	Y+2, r23	; 0x02
    5016:	8b 83       	std	Y+3, r24	; 0x03
    5018:	9c 83       	std	Y+4, r25	; 0x04
    501a:	2d 83       	std	Y+5, r18	; 0x05
    501c:	3e 83       	std	Y+6, r19	; 0x06
    501e:	4f 83       	std	Y+7, r20	; 0x07
    5020:	58 87       	std	Y+8, r21	; 0x08
    5022:	89 e0       	ldi	r24, 0x09	; 9
    5024:	e8 2e       	mov	r14, r24
    5026:	f1 2c       	mov	r15, r1
    5028:	ec 0e       	add	r14, r28
    502a:	fd 1e       	adc	r15, r29
    502c:	ce 01       	movw	r24, r28
    502e:	01 96       	adiw	r24, 0x01	; 1
    5030:	b7 01       	movw	r22, r14
    5032:	0e 94 5c 29 	call	0x52b8	; 0x52b8 <__unpack_f>
    5036:	8e 01       	movw	r16, r28
    5038:	0f 5e       	subi	r16, 0xEF	; 239
    503a:	1f 4f       	sbci	r17, 0xFF	; 255
    503c:	ce 01       	movw	r24, r28
    503e:	05 96       	adiw	r24, 0x05	; 5
    5040:	b8 01       	movw	r22, r16
    5042:	0e 94 5c 29 	call	0x52b8	; 0x52b8 <__unpack_f>
    5046:	89 85       	ldd	r24, Y+9	; 0x09
    5048:	82 30       	cpi	r24, 0x02	; 2
    504a:	40 f0       	brcs	.+16     	; 0x505c <__gesf2+0x56>
    504c:	89 89       	ldd	r24, Y+17	; 0x11
    504e:	82 30       	cpi	r24, 0x02	; 2
    5050:	28 f0       	brcs	.+10     	; 0x505c <__gesf2+0x56>
    5052:	c7 01       	movw	r24, r14
    5054:	b8 01       	movw	r22, r16
    5056:	0e 94 d4 29 	call	0x53a8	; 0x53a8 <__fpcmp_parts_f>
    505a:	01 c0       	rjmp	.+2      	; 0x505e <__gesf2+0x58>
    505c:	8f ef       	ldi	r24, 0xFF	; 255
    505e:	68 96       	adiw	r28, 0x18	; 24
    5060:	e6 e0       	ldi	r30, 0x06	; 6
    5062:	0c 94 74 2a 	jmp	0x54e8	; 0x54e8 <__epilogue_restores__+0x18>

00005066 <__fixsfsi>:
    5066:	ac e0       	ldi	r26, 0x0C	; 12
    5068:	b0 e0       	ldi	r27, 0x00	; 0
    506a:	e9 e3       	ldi	r30, 0x39	; 57
    506c:	f8 e2       	ldi	r31, 0x28	; 40
    506e:	0c 94 5c 2a 	jmp	0x54b8	; 0x54b8 <__prologue_saves__+0x20>
    5072:	69 83       	std	Y+1, r22	; 0x01
    5074:	7a 83       	std	Y+2, r23	; 0x02
    5076:	8b 83       	std	Y+3, r24	; 0x03
    5078:	9c 83       	std	Y+4, r25	; 0x04
    507a:	ce 01       	movw	r24, r28
    507c:	01 96       	adiw	r24, 0x01	; 1
    507e:	be 01       	movw	r22, r28
    5080:	6b 5f       	subi	r22, 0xFB	; 251
    5082:	7f 4f       	sbci	r23, 0xFF	; 255
    5084:	0e 94 5c 29 	call	0x52b8	; 0x52b8 <__unpack_f>
    5088:	8d 81       	ldd	r24, Y+5	; 0x05
    508a:	82 30       	cpi	r24, 0x02	; 2
    508c:	61 f1       	breq	.+88     	; 0x50e6 <__fixsfsi+0x80>
    508e:	82 30       	cpi	r24, 0x02	; 2
    5090:	50 f1       	brcs	.+84     	; 0x50e6 <__fixsfsi+0x80>
    5092:	84 30       	cpi	r24, 0x04	; 4
    5094:	21 f4       	brne	.+8      	; 0x509e <__fixsfsi+0x38>
    5096:	8e 81       	ldd	r24, Y+6	; 0x06
    5098:	88 23       	and	r24, r24
    509a:	51 f1       	breq	.+84     	; 0x50f0 <__fixsfsi+0x8a>
    509c:	2e c0       	rjmp	.+92     	; 0x50fa <__fixsfsi+0x94>
    509e:	2f 81       	ldd	r18, Y+7	; 0x07
    50a0:	38 85       	ldd	r19, Y+8	; 0x08
    50a2:	37 fd       	sbrc	r19, 7
    50a4:	20 c0       	rjmp	.+64     	; 0x50e6 <__fixsfsi+0x80>
    50a6:	6e 81       	ldd	r22, Y+6	; 0x06
    50a8:	2f 31       	cpi	r18, 0x1F	; 31
    50aa:	31 05       	cpc	r19, r1
    50ac:	1c f0       	brlt	.+6      	; 0x50b4 <__fixsfsi+0x4e>
    50ae:	66 23       	and	r22, r22
    50b0:	f9 f0       	breq	.+62     	; 0x50f0 <__fixsfsi+0x8a>
    50b2:	23 c0       	rjmp	.+70     	; 0x50fa <__fixsfsi+0x94>
    50b4:	8e e1       	ldi	r24, 0x1E	; 30
    50b6:	90 e0       	ldi	r25, 0x00	; 0
    50b8:	82 1b       	sub	r24, r18
    50ba:	93 0b       	sbc	r25, r19
    50bc:	29 85       	ldd	r18, Y+9	; 0x09
    50be:	3a 85       	ldd	r19, Y+10	; 0x0a
    50c0:	4b 85       	ldd	r20, Y+11	; 0x0b
    50c2:	5c 85       	ldd	r21, Y+12	; 0x0c
    50c4:	04 c0       	rjmp	.+8      	; 0x50ce <__fixsfsi+0x68>
    50c6:	56 95       	lsr	r21
    50c8:	47 95       	ror	r20
    50ca:	37 95       	ror	r19
    50cc:	27 95       	ror	r18
    50ce:	8a 95       	dec	r24
    50d0:	d2 f7       	brpl	.-12     	; 0x50c6 <__fixsfsi+0x60>
    50d2:	66 23       	and	r22, r22
    50d4:	b1 f0       	breq	.+44     	; 0x5102 <__fixsfsi+0x9c>
    50d6:	50 95       	com	r21
    50d8:	40 95       	com	r20
    50da:	30 95       	com	r19
    50dc:	21 95       	neg	r18
    50de:	3f 4f       	sbci	r19, 0xFF	; 255
    50e0:	4f 4f       	sbci	r20, 0xFF	; 255
    50e2:	5f 4f       	sbci	r21, 0xFF	; 255
    50e4:	0e c0       	rjmp	.+28     	; 0x5102 <__fixsfsi+0x9c>
    50e6:	20 e0       	ldi	r18, 0x00	; 0
    50e8:	30 e0       	ldi	r19, 0x00	; 0
    50ea:	40 e0       	ldi	r20, 0x00	; 0
    50ec:	50 e0       	ldi	r21, 0x00	; 0
    50ee:	09 c0       	rjmp	.+18     	; 0x5102 <__fixsfsi+0x9c>
    50f0:	2f ef       	ldi	r18, 0xFF	; 255
    50f2:	3f ef       	ldi	r19, 0xFF	; 255
    50f4:	4f ef       	ldi	r20, 0xFF	; 255
    50f6:	5f e7       	ldi	r21, 0x7F	; 127
    50f8:	04 c0       	rjmp	.+8      	; 0x5102 <__fixsfsi+0x9c>
    50fa:	20 e0       	ldi	r18, 0x00	; 0
    50fc:	30 e0       	ldi	r19, 0x00	; 0
    50fe:	40 e0       	ldi	r20, 0x00	; 0
    5100:	50 e8       	ldi	r21, 0x80	; 128
    5102:	b9 01       	movw	r22, r18
    5104:	ca 01       	movw	r24, r20
    5106:	2c 96       	adiw	r28, 0x0c	; 12
    5108:	e2 e0       	ldi	r30, 0x02	; 2
    510a:	0c 94 78 2a 	jmp	0x54f0	; 0x54f0 <__epilogue_restores__+0x20>

0000510e <__pack_f>:
    510e:	df 92       	push	r13
    5110:	ef 92       	push	r14
    5112:	ff 92       	push	r15
    5114:	0f 93       	push	r16
    5116:	1f 93       	push	r17
    5118:	fc 01       	movw	r30, r24
    511a:	e4 80       	ldd	r14, Z+4	; 0x04
    511c:	f5 80       	ldd	r15, Z+5	; 0x05
    511e:	06 81       	ldd	r16, Z+6	; 0x06
    5120:	17 81       	ldd	r17, Z+7	; 0x07
    5122:	d1 80       	ldd	r13, Z+1	; 0x01
    5124:	80 81       	ld	r24, Z
    5126:	82 30       	cpi	r24, 0x02	; 2
    5128:	48 f4       	brcc	.+18     	; 0x513c <__pack_f+0x2e>
    512a:	80 e0       	ldi	r24, 0x00	; 0
    512c:	90 e0       	ldi	r25, 0x00	; 0
    512e:	a0 e1       	ldi	r26, 0x10	; 16
    5130:	b0 e0       	ldi	r27, 0x00	; 0
    5132:	e8 2a       	or	r14, r24
    5134:	f9 2a       	or	r15, r25
    5136:	0a 2b       	or	r16, r26
    5138:	1b 2b       	or	r17, r27
    513a:	a5 c0       	rjmp	.+330    	; 0x5286 <__pack_f+0x178>
    513c:	84 30       	cpi	r24, 0x04	; 4
    513e:	09 f4       	brne	.+2      	; 0x5142 <__pack_f+0x34>
    5140:	9f c0       	rjmp	.+318    	; 0x5280 <__pack_f+0x172>
    5142:	82 30       	cpi	r24, 0x02	; 2
    5144:	21 f4       	brne	.+8      	; 0x514e <__pack_f+0x40>
    5146:	ee 24       	eor	r14, r14
    5148:	ff 24       	eor	r15, r15
    514a:	87 01       	movw	r16, r14
    514c:	05 c0       	rjmp	.+10     	; 0x5158 <__pack_f+0x4a>
    514e:	e1 14       	cp	r14, r1
    5150:	f1 04       	cpc	r15, r1
    5152:	01 05       	cpc	r16, r1
    5154:	11 05       	cpc	r17, r1
    5156:	19 f4       	brne	.+6      	; 0x515e <__pack_f+0x50>
    5158:	e0 e0       	ldi	r30, 0x00	; 0
    515a:	f0 e0       	ldi	r31, 0x00	; 0
    515c:	96 c0       	rjmp	.+300    	; 0x528a <__pack_f+0x17c>
    515e:	62 81       	ldd	r22, Z+2	; 0x02
    5160:	73 81       	ldd	r23, Z+3	; 0x03
    5162:	9f ef       	ldi	r25, 0xFF	; 255
    5164:	62 38       	cpi	r22, 0x82	; 130
    5166:	79 07       	cpc	r23, r25
    5168:	0c f0       	brlt	.+2      	; 0x516c <__pack_f+0x5e>
    516a:	5b c0       	rjmp	.+182    	; 0x5222 <__pack_f+0x114>
    516c:	22 e8       	ldi	r18, 0x82	; 130
    516e:	3f ef       	ldi	r19, 0xFF	; 255
    5170:	26 1b       	sub	r18, r22
    5172:	37 0b       	sbc	r19, r23
    5174:	2a 31       	cpi	r18, 0x1A	; 26
    5176:	31 05       	cpc	r19, r1
    5178:	2c f0       	brlt	.+10     	; 0x5184 <__pack_f+0x76>
    517a:	20 e0       	ldi	r18, 0x00	; 0
    517c:	30 e0       	ldi	r19, 0x00	; 0
    517e:	40 e0       	ldi	r20, 0x00	; 0
    5180:	50 e0       	ldi	r21, 0x00	; 0
    5182:	2a c0       	rjmp	.+84     	; 0x51d8 <__pack_f+0xca>
    5184:	b8 01       	movw	r22, r16
    5186:	a7 01       	movw	r20, r14
    5188:	02 2e       	mov	r0, r18
    518a:	04 c0       	rjmp	.+8      	; 0x5194 <__pack_f+0x86>
    518c:	76 95       	lsr	r23
    518e:	67 95       	ror	r22
    5190:	57 95       	ror	r21
    5192:	47 95       	ror	r20
    5194:	0a 94       	dec	r0
    5196:	d2 f7       	brpl	.-12     	; 0x518c <__pack_f+0x7e>
    5198:	81 e0       	ldi	r24, 0x01	; 1
    519a:	90 e0       	ldi	r25, 0x00	; 0
    519c:	a0 e0       	ldi	r26, 0x00	; 0
    519e:	b0 e0       	ldi	r27, 0x00	; 0
    51a0:	04 c0       	rjmp	.+8      	; 0x51aa <__pack_f+0x9c>
    51a2:	88 0f       	add	r24, r24
    51a4:	99 1f       	adc	r25, r25
    51a6:	aa 1f       	adc	r26, r26
    51a8:	bb 1f       	adc	r27, r27
    51aa:	2a 95       	dec	r18
    51ac:	d2 f7       	brpl	.-12     	; 0x51a2 <__pack_f+0x94>
    51ae:	01 97       	sbiw	r24, 0x01	; 1
    51b0:	a1 09       	sbc	r26, r1
    51b2:	b1 09       	sbc	r27, r1
    51b4:	8e 21       	and	r24, r14
    51b6:	9f 21       	and	r25, r15
    51b8:	a0 23       	and	r26, r16
    51ba:	b1 23       	and	r27, r17
    51bc:	00 97       	sbiw	r24, 0x00	; 0
    51be:	a1 05       	cpc	r26, r1
    51c0:	b1 05       	cpc	r27, r1
    51c2:	21 f0       	breq	.+8      	; 0x51cc <__pack_f+0xbe>
    51c4:	81 e0       	ldi	r24, 0x01	; 1
    51c6:	90 e0       	ldi	r25, 0x00	; 0
    51c8:	a0 e0       	ldi	r26, 0x00	; 0
    51ca:	b0 e0       	ldi	r27, 0x00	; 0
    51cc:	9a 01       	movw	r18, r20
    51ce:	ab 01       	movw	r20, r22
    51d0:	28 2b       	or	r18, r24
    51d2:	39 2b       	or	r19, r25
    51d4:	4a 2b       	or	r20, r26
    51d6:	5b 2b       	or	r21, r27
    51d8:	da 01       	movw	r26, r20
    51da:	c9 01       	movw	r24, r18
    51dc:	8f 77       	andi	r24, 0x7F	; 127
    51de:	90 70       	andi	r25, 0x00	; 0
    51e0:	a0 70       	andi	r26, 0x00	; 0
    51e2:	b0 70       	andi	r27, 0x00	; 0
    51e4:	80 34       	cpi	r24, 0x40	; 64
    51e6:	91 05       	cpc	r25, r1
    51e8:	a1 05       	cpc	r26, r1
    51ea:	b1 05       	cpc	r27, r1
    51ec:	39 f4       	brne	.+14     	; 0x51fc <__pack_f+0xee>
    51ee:	27 ff       	sbrs	r18, 7
    51f0:	09 c0       	rjmp	.+18     	; 0x5204 <__pack_f+0xf6>
    51f2:	20 5c       	subi	r18, 0xC0	; 192
    51f4:	3f 4f       	sbci	r19, 0xFF	; 255
    51f6:	4f 4f       	sbci	r20, 0xFF	; 255
    51f8:	5f 4f       	sbci	r21, 0xFF	; 255
    51fa:	04 c0       	rjmp	.+8      	; 0x5204 <__pack_f+0xf6>
    51fc:	21 5c       	subi	r18, 0xC1	; 193
    51fe:	3f 4f       	sbci	r19, 0xFF	; 255
    5200:	4f 4f       	sbci	r20, 0xFF	; 255
    5202:	5f 4f       	sbci	r21, 0xFF	; 255
    5204:	e0 e0       	ldi	r30, 0x00	; 0
    5206:	f0 e0       	ldi	r31, 0x00	; 0
    5208:	20 30       	cpi	r18, 0x00	; 0
    520a:	a0 e0       	ldi	r26, 0x00	; 0
    520c:	3a 07       	cpc	r19, r26
    520e:	a0 e0       	ldi	r26, 0x00	; 0
    5210:	4a 07       	cpc	r20, r26
    5212:	a0 e4       	ldi	r26, 0x40	; 64
    5214:	5a 07       	cpc	r21, r26
    5216:	10 f0       	brcs	.+4      	; 0x521c <__pack_f+0x10e>
    5218:	e1 e0       	ldi	r30, 0x01	; 1
    521a:	f0 e0       	ldi	r31, 0x00	; 0
    521c:	79 01       	movw	r14, r18
    521e:	8a 01       	movw	r16, r20
    5220:	27 c0       	rjmp	.+78     	; 0x5270 <__pack_f+0x162>
    5222:	60 38       	cpi	r22, 0x80	; 128
    5224:	71 05       	cpc	r23, r1
    5226:	64 f5       	brge	.+88     	; 0x5280 <__pack_f+0x172>
    5228:	fb 01       	movw	r30, r22
    522a:	e1 58       	subi	r30, 0x81	; 129
    522c:	ff 4f       	sbci	r31, 0xFF	; 255
    522e:	d8 01       	movw	r26, r16
    5230:	c7 01       	movw	r24, r14
    5232:	8f 77       	andi	r24, 0x7F	; 127
    5234:	90 70       	andi	r25, 0x00	; 0
    5236:	a0 70       	andi	r26, 0x00	; 0
    5238:	b0 70       	andi	r27, 0x00	; 0
    523a:	80 34       	cpi	r24, 0x40	; 64
    523c:	91 05       	cpc	r25, r1
    523e:	a1 05       	cpc	r26, r1
    5240:	b1 05       	cpc	r27, r1
    5242:	39 f4       	brne	.+14     	; 0x5252 <__pack_f+0x144>
    5244:	e7 fe       	sbrs	r14, 7
    5246:	0d c0       	rjmp	.+26     	; 0x5262 <__pack_f+0x154>
    5248:	80 e4       	ldi	r24, 0x40	; 64
    524a:	90 e0       	ldi	r25, 0x00	; 0
    524c:	a0 e0       	ldi	r26, 0x00	; 0
    524e:	b0 e0       	ldi	r27, 0x00	; 0
    5250:	04 c0       	rjmp	.+8      	; 0x525a <__pack_f+0x14c>
    5252:	8f e3       	ldi	r24, 0x3F	; 63
    5254:	90 e0       	ldi	r25, 0x00	; 0
    5256:	a0 e0       	ldi	r26, 0x00	; 0
    5258:	b0 e0       	ldi	r27, 0x00	; 0
    525a:	e8 0e       	add	r14, r24
    525c:	f9 1e       	adc	r15, r25
    525e:	0a 1f       	adc	r16, r26
    5260:	1b 1f       	adc	r17, r27
    5262:	17 ff       	sbrs	r17, 7
    5264:	05 c0       	rjmp	.+10     	; 0x5270 <__pack_f+0x162>
    5266:	16 95       	lsr	r17
    5268:	07 95       	ror	r16
    526a:	f7 94       	ror	r15
    526c:	e7 94       	ror	r14
    526e:	31 96       	adiw	r30, 0x01	; 1
    5270:	87 e0       	ldi	r24, 0x07	; 7
    5272:	16 95       	lsr	r17
    5274:	07 95       	ror	r16
    5276:	f7 94       	ror	r15
    5278:	e7 94       	ror	r14
    527a:	8a 95       	dec	r24
    527c:	d1 f7       	brne	.-12     	; 0x5272 <__pack_f+0x164>
    527e:	05 c0       	rjmp	.+10     	; 0x528a <__pack_f+0x17c>
    5280:	ee 24       	eor	r14, r14
    5282:	ff 24       	eor	r15, r15
    5284:	87 01       	movw	r16, r14
    5286:	ef ef       	ldi	r30, 0xFF	; 255
    5288:	f0 e0       	ldi	r31, 0x00	; 0
    528a:	6e 2f       	mov	r22, r30
    528c:	67 95       	ror	r22
    528e:	66 27       	eor	r22, r22
    5290:	67 95       	ror	r22
    5292:	90 2f       	mov	r25, r16
    5294:	9f 77       	andi	r25, 0x7F	; 127
    5296:	d7 94       	ror	r13
    5298:	dd 24       	eor	r13, r13
    529a:	d7 94       	ror	r13
    529c:	8e 2f       	mov	r24, r30
    529e:	86 95       	lsr	r24
    52a0:	49 2f       	mov	r20, r25
    52a2:	46 2b       	or	r20, r22
    52a4:	58 2f       	mov	r21, r24
    52a6:	5d 29       	or	r21, r13
    52a8:	b7 01       	movw	r22, r14
    52aa:	ca 01       	movw	r24, r20
    52ac:	1f 91       	pop	r17
    52ae:	0f 91       	pop	r16
    52b0:	ff 90       	pop	r15
    52b2:	ef 90       	pop	r14
    52b4:	df 90       	pop	r13
    52b6:	08 95       	ret

000052b8 <__unpack_f>:
    52b8:	fc 01       	movw	r30, r24
    52ba:	db 01       	movw	r26, r22
    52bc:	40 81       	ld	r20, Z
    52be:	51 81       	ldd	r21, Z+1	; 0x01
    52c0:	22 81       	ldd	r18, Z+2	; 0x02
    52c2:	62 2f       	mov	r22, r18
    52c4:	6f 77       	andi	r22, 0x7F	; 127
    52c6:	70 e0       	ldi	r23, 0x00	; 0
    52c8:	22 1f       	adc	r18, r18
    52ca:	22 27       	eor	r18, r18
    52cc:	22 1f       	adc	r18, r18
    52ce:	93 81       	ldd	r25, Z+3	; 0x03
    52d0:	89 2f       	mov	r24, r25
    52d2:	88 0f       	add	r24, r24
    52d4:	82 2b       	or	r24, r18
    52d6:	28 2f       	mov	r18, r24
    52d8:	30 e0       	ldi	r19, 0x00	; 0
    52da:	99 1f       	adc	r25, r25
    52dc:	99 27       	eor	r25, r25
    52de:	99 1f       	adc	r25, r25
    52e0:	11 96       	adiw	r26, 0x01	; 1
    52e2:	9c 93       	st	X, r25
    52e4:	11 97       	sbiw	r26, 0x01	; 1
    52e6:	21 15       	cp	r18, r1
    52e8:	31 05       	cpc	r19, r1
    52ea:	a9 f5       	brne	.+106    	; 0x5356 <__unpack_f+0x9e>
    52ec:	41 15       	cp	r20, r1
    52ee:	51 05       	cpc	r21, r1
    52f0:	61 05       	cpc	r22, r1
    52f2:	71 05       	cpc	r23, r1
    52f4:	11 f4       	brne	.+4      	; 0x52fa <__unpack_f+0x42>
    52f6:	82 e0       	ldi	r24, 0x02	; 2
    52f8:	37 c0       	rjmp	.+110    	; 0x5368 <__unpack_f+0xb0>
    52fa:	82 e8       	ldi	r24, 0x82	; 130
    52fc:	9f ef       	ldi	r25, 0xFF	; 255
    52fe:	13 96       	adiw	r26, 0x03	; 3
    5300:	9c 93       	st	X, r25
    5302:	8e 93       	st	-X, r24
    5304:	12 97       	sbiw	r26, 0x02	; 2
    5306:	9a 01       	movw	r18, r20
    5308:	ab 01       	movw	r20, r22
    530a:	67 e0       	ldi	r22, 0x07	; 7
    530c:	22 0f       	add	r18, r18
    530e:	33 1f       	adc	r19, r19
    5310:	44 1f       	adc	r20, r20
    5312:	55 1f       	adc	r21, r21
    5314:	6a 95       	dec	r22
    5316:	d1 f7       	brne	.-12     	; 0x530c <__unpack_f+0x54>
    5318:	83 e0       	ldi	r24, 0x03	; 3
    531a:	8c 93       	st	X, r24
    531c:	0d c0       	rjmp	.+26     	; 0x5338 <__unpack_f+0x80>
    531e:	22 0f       	add	r18, r18
    5320:	33 1f       	adc	r19, r19
    5322:	44 1f       	adc	r20, r20
    5324:	55 1f       	adc	r21, r21
    5326:	12 96       	adiw	r26, 0x02	; 2
    5328:	8d 91       	ld	r24, X+
    532a:	9c 91       	ld	r25, X
    532c:	13 97       	sbiw	r26, 0x03	; 3
    532e:	01 97       	sbiw	r24, 0x01	; 1
    5330:	13 96       	adiw	r26, 0x03	; 3
    5332:	9c 93       	st	X, r25
    5334:	8e 93       	st	-X, r24
    5336:	12 97       	sbiw	r26, 0x02	; 2
    5338:	20 30       	cpi	r18, 0x00	; 0
    533a:	80 e0       	ldi	r24, 0x00	; 0
    533c:	38 07       	cpc	r19, r24
    533e:	80 e0       	ldi	r24, 0x00	; 0
    5340:	48 07       	cpc	r20, r24
    5342:	80 e4       	ldi	r24, 0x40	; 64
    5344:	58 07       	cpc	r21, r24
    5346:	58 f3       	brcs	.-42     	; 0x531e <__unpack_f+0x66>
    5348:	14 96       	adiw	r26, 0x04	; 4
    534a:	2d 93       	st	X+, r18
    534c:	3d 93       	st	X+, r19
    534e:	4d 93       	st	X+, r20
    5350:	5c 93       	st	X, r21
    5352:	17 97       	sbiw	r26, 0x07	; 7
    5354:	08 95       	ret
    5356:	2f 3f       	cpi	r18, 0xFF	; 255
    5358:	31 05       	cpc	r19, r1
    535a:	79 f4       	brne	.+30     	; 0x537a <__unpack_f+0xc2>
    535c:	41 15       	cp	r20, r1
    535e:	51 05       	cpc	r21, r1
    5360:	61 05       	cpc	r22, r1
    5362:	71 05       	cpc	r23, r1
    5364:	19 f4       	brne	.+6      	; 0x536c <__unpack_f+0xb4>
    5366:	84 e0       	ldi	r24, 0x04	; 4
    5368:	8c 93       	st	X, r24
    536a:	08 95       	ret
    536c:	64 ff       	sbrs	r22, 4
    536e:	03 c0       	rjmp	.+6      	; 0x5376 <__unpack_f+0xbe>
    5370:	81 e0       	ldi	r24, 0x01	; 1
    5372:	8c 93       	st	X, r24
    5374:	12 c0       	rjmp	.+36     	; 0x539a <__unpack_f+0xe2>
    5376:	1c 92       	st	X, r1
    5378:	10 c0       	rjmp	.+32     	; 0x539a <__unpack_f+0xe2>
    537a:	2f 57       	subi	r18, 0x7F	; 127
    537c:	30 40       	sbci	r19, 0x00	; 0
    537e:	13 96       	adiw	r26, 0x03	; 3
    5380:	3c 93       	st	X, r19
    5382:	2e 93       	st	-X, r18
    5384:	12 97       	sbiw	r26, 0x02	; 2
    5386:	83 e0       	ldi	r24, 0x03	; 3
    5388:	8c 93       	st	X, r24
    538a:	87 e0       	ldi	r24, 0x07	; 7
    538c:	44 0f       	add	r20, r20
    538e:	55 1f       	adc	r21, r21
    5390:	66 1f       	adc	r22, r22
    5392:	77 1f       	adc	r23, r23
    5394:	8a 95       	dec	r24
    5396:	d1 f7       	brne	.-12     	; 0x538c <__unpack_f+0xd4>
    5398:	70 64       	ori	r23, 0x40	; 64
    539a:	14 96       	adiw	r26, 0x04	; 4
    539c:	4d 93       	st	X+, r20
    539e:	5d 93       	st	X+, r21
    53a0:	6d 93       	st	X+, r22
    53a2:	7c 93       	st	X, r23
    53a4:	17 97       	sbiw	r26, 0x07	; 7
    53a6:	08 95       	ret

000053a8 <__fpcmp_parts_f>:
    53a8:	1f 93       	push	r17
    53aa:	dc 01       	movw	r26, r24
    53ac:	fb 01       	movw	r30, r22
    53ae:	9c 91       	ld	r25, X
    53b0:	92 30       	cpi	r25, 0x02	; 2
    53b2:	08 f4       	brcc	.+2      	; 0x53b6 <__fpcmp_parts_f+0xe>
    53b4:	47 c0       	rjmp	.+142    	; 0x5444 <__fpcmp_parts_f+0x9c>
    53b6:	80 81       	ld	r24, Z
    53b8:	82 30       	cpi	r24, 0x02	; 2
    53ba:	08 f4       	brcc	.+2      	; 0x53be <__fpcmp_parts_f+0x16>
    53bc:	43 c0       	rjmp	.+134    	; 0x5444 <__fpcmp_parts_f+0x9c>
    53be:	94 30       	cpi	r25, 0x04	; 4
    53c0:	51 f4       	brne	.+20     	; 0x53d6 <__fpcmp_parts_f+0x2e>
    53c2:	11 96       	adiw	r26, 0x01	; 1
    53c4:	1c 91       	ld	r17, X
    53c6:	84 30       	cpi	r24, 0x04	; 4
    53c8:	99 f5       	brne	.+102    	; 0x5430 <__fpcmp_parts_f+0x88>
    53ca:	81 81       	ldd	r24, Z+1	; 0x01
    53cc:	68 2f       	mov	r22, r24
    53ce:	70 e0       	ldi	r23, 0x00	; 0
    53d0:	61 1b       	sub	r22, r17
    53d2:	71 09       	sbc	r23, r1
    53d4:	3f c0       	rjmp	.+126    	; 0x5454 <__fpcmp_parts_f+0xac>
    53d6:	84 30       	cpi	r24, 0x04	; 4
    53d8:	21 f0       	breq	.+8      	; 0x53e2 <__fpcmp_parts_f+0x3a>
    53da:	92 30       	cpi	r25, 0x02	; 2
    53dc:	31 f4       	brne	.+12     	; 0x53ea <__fpcmp_parts_f+0x42>
    53de:	82 30       	cpi	r24, 0x02	; 2
    53e0:	b9 f1       	breq	.+110    	; 0x5450 <__fpcmp_parts_f+0xa8>
    53e2:	81 81       	ldd	r24, Z+1	; 0x01
    53e4:	88 23       	and	r24, r24
    53e6:	89 f1       	breq	.+98     	; 0x544a <__fpcmp_parts_f+0xa2>
    53e8:	2d c0       	rjmp	.+90     	; 0x5444 <__fpcmp_parts_f+0x9c>
    53ea:	11 96       	adiw	r26, 0x01	; 1
    53ec:	1c 91       	ld	r17, X
    53ee:	11 97       	sbiw	r26, 0x01	; 1
    53f0:	82 30       	cpi	r24, 0x02	; 2
    53f2:	f1 f0       	breq	.+60     	; 0x5430 <__fpcmp_parts_f+0x88>
    53f4:	81 81       	ldd	r24, Z+1	; 0x01
    53f6:	18 17       	cp	r17, r24
    53f8:	d9 f4       	brne	.+54     	; 0x5430 <__fpcmp_parts_f+0x88>
    53fa:	12 96       	adiw	r26, 0x02	; 2
    53fc:	2d 91       	ld	r18, X+
    53fe:	3c 91       	ld	r19, X
    5400:	13 97       	sbiw	r26, 0x03	; 3
    5402:	82 81       	ldd	r24, Z+2	; 0x02
    5404:	93 81       	ldd	r25, Z+3	; 0x03
    5406:	82 17       	cp	r24, r18
    5408:	93 07       	cpc	r25, r19
    540a:	94 f0       	brlt	.+36     	; 0x5430 <__fpcmp_parts_f+0x88>
    540c:	28 17       	cp	r18, r24
    540e:	39 07       	cpc	r19, r25
    5410:	bc f0       	brlt	.+46     	; 0x5440 <__fpcmp_parts_f+0x98>
    5412:	14 96       	adiw	r26, 0x04	; 4
    5414:	8d 91       	ld	r24, X+
    5416:	9d 91       	ld	r25, X+
    5418:	0d 90       	ld	r0, X+
    541a:	bc 91       	ld	r27, X
    541c:	a0 2d       	mov	r26, r0
    541e:	24 81       	ldd	r18, Z+4	; 0x04
    5420:	35 81       	ldd	r19, Z+5	; 0x05
    5422:	46 81       	ldd	r20, Z+6	; 0x06
    5424:	57 81       	ldd	r21, Z+7	; 0x07
    5426:	28 17       	cp	r18, r24
    5428:	39 07       	cpc	r19, r25
    542a:	4a 07       	cpc	r20, r26
    542c:	5b 07       	cpc	r21, r27
    542e:	18 f4       	brcc	.+6      	; 0x5436 <__fpcmp_parts_f+0x8e>
    5430:	11 23       	and	r17, r17
    5432:	41 f0       	breq	.+16     	; 0x5444 <__fpcmp_parts_f+0x9c>
    5434:	0a c0       	rjmp	.+20     	; 0x544a <__fpcmp_parts_f+0xa2>
    5436:	82 17       	cp	r24, r18
    5438:	93 07       	cpc	r25, r19
    543a:	a4 07       	cpc	r26, r20
    543c:	b5 07       	cpc	r27, r21
    543e:	40 f4       	brcc	.+16     	; 0x5450 <__fpcmp_parts_f+0xa8>
    5440:	11 23       	and	r17, r17
    5442:	19 f0       	breq	.+6      	; 0x544a <__fpcmp_parts_f+0xa2>
    5444:	61 e0       	ldi	r22, 0x01	; 1
    5446:	70 e0       	ldi	r23, 0x00	; 0
    5448:	05 c0       	rjmp	.+10     	; 0x5454 <__fpcmp_parts_f+0xac>
    544a:	6f ef       	ldi	r22, 0xFF	; 255
    544c:	7f ef       	ldi	r23, 0xFF	; 255
    544e:	02 c0       	rjmp	.+4      	; 0x5454 <__fpcmp_parts_f+0xac>
    5450:	60 e0       	ldi	r22, 0x00	; 0
    5452:	70 e0       	ldi	r23, 0x00	; 0
    5454:	cb 01       	movw	r24, r22
    5456:	1f 91       	pop	r17
    5458:	08 95       	ret

0000545a <__mulsi3>:
    545a:	62 9f       	mul	r22, r18
    545c:	d0 01       	movw	r26, r0
    545e:	73 9f       	mul	r23, r19
    5460:	f0 01       	movw	r30, r0
    5462:	82 9f       	mul	r24, r18
    5464:	e0 0d       	add	r30, r0
    5466:	f1 1d       	adc	r31, r1
    5468:	64 9f       	mul	r22, r20
    546a:	e0 0d       	add	r30, r0
    546c:	f1 1d       	adc	r31, r1
    546e:	92 9f       	mul	r25, r18
    5470:	f0 0d       	add	r31, r0
    5472:	83 9f       	mul	r24, r19
    5474:	f0 0d       	add	r31, r0
    5476:	74 9f       	mul	r23, r20
    5478:	f0 0d       	add	r31, r0
    547a:	65 9f       	mul	r22, r21
    547c:	f0 0d       	add	r31, r0
    547e:	99 27       	eor	r25, r25
    5480:	72 9f       	mul	r23, r18
    5482:	b0 0d       	add	r27, r0
    5484:	e1 1d       	adc	r30, r1
    5486:	f9 1f       	adc	r31, r25
    5488:	63 9f       	mul	r22, r19
    548a:	b0 0d       	add	r27, r0
    548c:	e1 1d       	adc	r30, r1
    548e:	f9 1f       	adc	r31, r25
    5490:	bd 01       	movw	r22, r26
    5492:	cf 01       	movw	r24, r30
    5494:	11 24       	eor	r1, r1
    5496:	08 95       	ret

00005498 <__prologue_saves__>:
    5498:	2f 92       	push	r2
    549a:	3f 92       	push	r3
    549c:	4f 92       	push	r4
    549e:	5f 92       	push	r5
    54a0:	6f 92       	push	r6
    54a2:	7f 92       	push	r7
    54a4:	8f 92       	push	r8
    54a6:	9f 92       	push	r9
    54a8:	af 92       	push	r10
    54aa:	bf 92       	push	r11
    54ac:	cf 92       	push	r12
    54ae:	df 92       	push	r13
    54b0:	ef 92       	push	r14
    54b2:	ff 92       	push	r15
    54b4:	0f 93       	push	r16
    54b6:	1f 93       	push	r17
    54b8:	cf 93       	push	r28
    54ba:	df 93       	push	r29
    54bc:	cd b7       	in	r28, 0x3d	; 61
    54be:	de b7       	in	r29, 0x3e	; 62
    54c0:	ca 1b       	sub	r28, r26
    54c2:	db 0b       	sbc	r29, r27
    54c4:	0f b6       	in	r0, 0x3f	; 63
    54c6:	f8 94       	cli
    54c8:	de bf       	out	0x3e, r29	; 62
    54ca:	0f be       	out	0x3f, r0	; 63
    54cc:	cd bf       	out	0x3d, r28	; 61
    54ce:	09 94       	ijmp

000054d0 <__epilogue_restores__>:
    54d0:	2a 88       	ldd	r2, Y+18	; 0x12
    54d2:	39 88       	ldd	r3, Y+17	; 0x11
    54d4:	48 88       	ldd	r4, Y+16	; 0x10
    54d6:	5f 84       	ldd	r5, Y+15	; 0x0f
    54d8:	6e 84       	ldd	r6, Y+14	; 0x0e
    54da:	7d 84       	ldd	r7, Y+13	; 0x0d
    54dc:	8c 84       	ldd	r8, Y+12	; 0x0c
    54de:	9b 84       	ldd	r9, Y+11	; 0x0b
    54e0:	aa 84       	ldd	r10, Y+10	; 0x0a
    54e2:	b9 84       	ldd	r11, Y+9	; 0x09
    54e4:	c8 84       	ldd	r12, Y+8	; 0x08
    54e6:	df 80       	ldd	r13, Y+7	; 0x07
    54e8:	ee 80       	ldd	r14, Y+6	; 0x06
    54ea:	fd 80       	ldd	r15, Y+5	; 0x05
    54ec:	0c 81       	ldd	r16, Y+4	; 0x04
    54ee:	1b 81       	ldd	r17, Y+3	; 0x03
    54f0:	aa 81       	ldd	r26, Y+2	; 0x02
    54f2:	b9 81       	ldd	r27, Y+1	; 0x01
    54f4:	ce 0f       	add	r28, r30
    54f6:	d1 1d       	adc	r29, r1
    54f8:	0f b6       	in	r0, 0x3f	; 63
    54fa:	f8 94       	cli
    54fc:	de bf       	out	0x3e, r29	; 62
    54fe:	0f be       	out	0x3f, r0	; 63
    5500:	cd bf       	out	0x3d, r28	; 61
    5502:	ed 01       	movw	r28, r26
    5504:	08 95       	ret

00005506 <memcpy_P>:
    5506:	fb 01       	movw	r30, r22
    5508:	dc 01       	movw	r26, r24
    550a:	02 c0       	rjmp	.+4      	; 0x5510 <memcpy_P+0xa>
    550c:	05 90       	lpm	r0, Z+
    550e:	0d 92       	st	X+, r0
    5510:	41 50       	subi	r20, 0x01	; 1
    5512:	50 40       	sbci	r21, 0x00	; 0
    5514:	d8 f7       	brcc	.-10     	; 0x550c <memcpy_P+0x6>
    5516:	08 95       	ret

00005518 <memset>:
    5518:	dc 01       	movw	r26, r24
    551a:	01 c0       	rjmp	.+2      	; 0x551e <memset+0x6>
    551c:	6d 93       	st	X+, r22
    551e:	41 50       	subi	r20, 0x01	; 1
    5520:	50 40       	sbci	r21, 0x00	; 0
    5522:	e0 f7       	brcc	.-8      	; 0x551c <memset+0x4>
    5524:	08 95       	ret

00005526 <ceil>:
    5526:	3b d0       	rcall	.+118    	; 0x559e <__fp_trunc>
    5528:	80 f0       	brcs	.+32     	; 0x554a <ceil+0x24>
    552a:	9f 37       	cpi	r25, 0x7F	; 127
    552c:	40 f4       	brcc	.+16     	; 0x553e <ceil+0x18>
    552e:	91 11       	cpse	r25, r1
    5530:	0e f4       	brtc	.+2      	; 0x5534 <ceil+0xe>
    5532:	4d c0       	rjmp	.+154    	; 0x55ce <__fp_szero>
    5534:	60 e0       	ldi	r22, 0x00	; 0
    5536:	70 e0       	ldi	r23, 0x00	; 0
    5538:	80 e8       	ldi	r24, 0x80	; 128
    553a:	9f e3       	ldi	r25, 0x3F	; 63
    553c:	08 95       	ret
    553e:	26 f0       	brts	.+8      	; 0x5548 <ceil+0x22>
    5540:	1b 16       	cp	r1, r27
    5542:	61 1d       	adc	r22, r1
    5544:	71 1d       	adc	r23, r1
    5546:	81 1d       	adc	r24, r1
    5548:	01 c0       	rjmp	.+2      	; 0x554c <__fp_mintl>
    554a:	1b c0       	rjmp	.+54     	; 0x5582 <__fp_mpack>

0000554c <__fp_mintl>:
    554c:	88 23       	and	r24, r24
    554e:	71 f4       	brne	.+28     	; 0x556c <__fp_mintl+0x20>
    5550:	77 23       	and	r23, r23
    5552:	21 f0       	breq	.+8      	; 0x555c <__fp_mintl+0x10>
    5554:	98 50       	subi	r25, 0x08	; 8
    5556:	87 2b       	or	r24, r23
    5558:	76 2f       	mov	r23, r22
    555a:	07 c0       	rjmp	.+14     	; 0x556a <__fp_mintl+0x1e>
    555c:	66 23       	and	r22, r22
    555e:	11 f4       	brne	.+4      	; 0x5564 <__fp_mintl+0x18>
    5560:	99 27       	eor	r25, r25
    5562:	0d c0       	rjmp	.+26     	; 0x557e <__fp_mintl+0x32>
    5564:	90 51       	subi	r25, 0x10	; 16
    5566:	86 2b       	or	r24, r22
    5568:	70 e0       	ldi	r23, 0x00	; 0
    556a:	60 e0       	ldi	r22, 0x00	; 0
    556c:	2a f0       	brmi	.+10     	; 0x5578 <__fp_mintl+0x2c>
    556e:	9a 95       	dec	r25
    5570:	66 0f       	add	r22, r22
    5572:	77 1f       	adc	r23, r23
    5574:	88 1f       	adc	r24, r24
    5576:	da f7       	brpl	.-10     	; 0x556e <__fp_mintl+0x22>
    5578:	88 0f       	add	r24, r24
    557a:	96 95       	lsr	r25
    557c:	87 95       	ror	r24
    557e:	97 f9       	bld	r25, 7
    5580:	08 95       	ret

00005582 <__fp_mpack>:
    5582:	9f 3f       	cpi	r25, 0xFF	; 255
    5584:	31 f0       	breq	.+12     	; 0x5592 <__fp_mpack_finite+0xc>

00005586 <__fp_mpack_finite>:
    5586:	91 50       	subi	r25, 0x01	; 1
    5588:	20 f4       	brcc	.+8      	; 0x5592 <__fp_mpack_finite+0xc>
    558a:	87 95       	ror	r24
    558c:	77 95       	ror	r23
    558e:	67 95       	ror	r22
    5590:	b7 95       	ror	r27
    5592:	88 0f       	add	r24, r24
    5594:	91 1d       	adc	r25, r1
    5596:	96 95       	lsr	r25
    5598:	87 95       	ror	r24
    559a:	97 f9       	bld	r25, 7
    559c:	08 95       	ret

0000559e <__fp_trunc>:
    559e:	25 d0       	rcall	.+74     	; 0x55ea <__fp_splitA>
    55a0:	a0 f0       	brcs	.+40     	; 0x55ca <__fp_trunc+0x2c>
    55a2:	be e7       	ldi	r27, 0x7E	; 126
    55a4:	b9 17       	cp	r27, r25
    55a6:	88 f4       	brcc	.+34     	; 0x55ca <__fp_trunc+0x2c>
    55a8:	bb 27       	eor	r27, r27
    55aa:	9f 38       	cpi	r25, 0x8F	; 143
    55ac:	60 f4       	brcc	.+24     	; 0x55c6 <__fp_trunc+0x28>
    55ae:	16 16       	cp	r1, r22
    55b0:	b1 1d       	adc	r27, r1
    55b2:	67 2f       	mov	r22, r23
    55b4:	78 2f       	mov	r23, r24
    55b6:	88 27       	eor	r24, r24
    55b8:	98 5f       	subi	r25, 0xF8	; 248
    55ba:	f7 cf       	rjmp	.-18     	; 0x55aa <__fp_trunc+0xc>
    55bc:	86 95       	lsr	r24
    55be:	77 95       	ror	r23
    55c0:	67 95       	ror	r22
    55c2:	b1 1d       	adc	r27, r1
    55c4:	93 95       	inc	r25
    55c6:	96 39       	cpi	r25, 0x96	; 150
    55c8:	c8 f3       	brcs	.-14     	; 0x55bc <__fp_trunc+0x1e>
    55ca:	08 95       	ret

000055cc <__fp_zero>:
    55cc:	e8 94       	clt

000055ce <__fp_szero>:
    55ce:	bb 27       	eor	r27, r27
    55d0:	66 27       	eor	r22, r22
    55d2:	77 27       	eor	r23, r23
    55d4:	cb 01       	movw	r24, r22
    55d6:	97 f9       	bld	r25, 7
    55d8:	08 95       	ret

000055da <__fp_split3>:
    55da:	57 fd       	sbrc	r21, 7
    55dc:	90 58       	subi	r25, 0x80	; 128
    55de:	44 0f       	add	r20, r20
    55e0:	55 1f       	adc	r21, r21
    55e2:	59 f0       	breq	.+22     	; 0x55fa <__fp_splitA+0x10>
    55e4:	5f 3f       	cpi	r21, 0xFF	; 255
    55e6:	71 f0       	breq	.+28     	; 0x5604 <__fp_splitA+0x1a>
    55e8:	47 95       	ror	r20

000055ea <__fp_splitA>:
    55ea:	88 0f       	add	r24, r24
    55ec:	97 fb       	bst	r25, 7
    55ee:	99 1f       	adc	r25, r25
    55f0:	61 f0       	breq	.+24     	; 0x560a <__fp_splitA+0x20>
    55f2:	9f 3f       	cpi	r25, 0xFF	; 255
    55f4:	79 f0       	breq	.+30     	; 0x5614 <__fp_splitA+0x2a>
    55f6:	87 95       	ror	r24
    55f8:	08 95       	ret
    55fa:	12 16       	cp	r1, r18
    55fc:	13 06       	cpc	r1, r19
    55fe:	14 06       	cpc	r1, r20
    5600:	55 1f       	adc	r21, r21
    5602:	f2 cf       	rjmp	.-28     	; 0x55e8 <__fp_split3+0xe>
    5604:	46 95       	lsr	r20
    5606:	f1 df       	rcall	.-30     	; 0x55ea <__fp_splitA>
    5608:	08 c0       	rjmp	.+16     	; 0x561a <__fp_splitA+0x30>
    560a:	16 16       	cp	r1, r22
    560c:	17 06       	cpc	r1, r23
    560e:	18 06       	cpc	r1, r24
    5610:	99 1f       	adc	r25, r25
    5612:	f1 cf       	rjmp	.-30     	; 0x55f6 <__fp_splitA+0xc>
    5614:	86 95       	lsr	r24
    5616:	71 05       	cpc	r23, r1
    5618:	61 05       	cpc	r22, r1
    561a:	08 94       	sec
    561c:	08 95       	ret

0000561e <_exit>:
    561e:	f8 94       	cli

00005620 <__stop_program>:
    5620:	ff cf       	rjmp	.-2      	; 0x5620 <__stop_program>
