
final.elf:     file format elf32-avr

Sections:
Idx Name          Size      VMA       LMA       File off  Algn
  0 .data         00000010  00800100  00004470  00004504  2**0
                  CONTENTS, ALLOC, LOAD, DATA
  1 .text         00004470  00000000  00000000  00000094  2**1
                  CONTENTS, ALLOC, LOAD, READONLY, CODE
  2 .bss          000000a3  00800110  00800110  00004514  2**0
                  ALLOC
  3 .debug_aranges 00000020  00000000  00000000  00004514  2**0
                  CONTENTS, READONLY, DEBUGGING
  4 .debug_pubnames 000001c5  00000000  00000000  00004534  2**0
                  CONTENTS, READONLY, DEBUGGING
  5 .debug_info   00000399  00000000  00000000  000046f9  2**0
                  CONTENTS, READONLY, DEBUGGING
  6 .debug_abbrev 0000017a  00000000  00000000  00004a92  2**0
                  CONTENTS, READONLY, DEBUGGING
  7 .debug_line   000003f8  00000000  00000000  00004c0c  2**0
                  CONTENTS, READONLY, DEBUGGING
  8 .debug_frame  00000050  00000000  00000000  00005004  2**2
                  CONTENTS, READONLY, DEBUGGING
  9 .debug_str    00000205  00000000  00000000  00005054  2**0
                  CONTENTS, READONLY, DEBUGGING
 10 .debug_loc    00000057  00000000  00000000  00005259  2**0
                  CONTENTS, READONLY, DEBUGGING

Disassembly of section .text:

00000000 <__vectors>:
       0:	0c 94 38 20 	jmp	0x4070	; 0x4070 <__ctors_end>
       4:	0c 94 55 20 	jmp	0x40aa	; 0x40aa <__bad_interrupt>
       8:	0c 94 55 20 	jmp	0x40aa	; 0x40aa <__bad_interrupt>
       c:	0c 94 55 20 	jmp	0x40aa	; 0x40aa <__bad_interrupt>
      10:	0c 94 55 20 	jmp	0x40aa	; 0x40aa <__bad_interrupt>
      14:	0c 94 55 20 	jmp	0x40aa	; 0x40aa <__bad_interrupt>
      18:	0c 94 55 20 	jmp	0x40aa	; 0x40aa <__bad_interrupt>
      1c:	0c 94 55 20 	jmp	0x40aa	; 0x40aa <__bad_interrupt>
      20:	0c 94 55 20 	jmp	0x40aa	; 0x40aa <__bad_interrupt>
      24:	0c 94 55 20 	jmp	0x40aa	; 0x40aa <__bad_interrupt>
      28:	0c 94 55 20 	jmp	0x40aa	; 0x40aa <__bad_interrupt>
      2c:	0c 94 55 20 	jmp	0x40aa	; 0x40aa <__bad_interrupt>
      30:	0c 94 55 20 	jmp	0x40aa	; 0x40aa <__bad_interrupt>
      34:	0c 94 90 21 	jmp	0x4320	; 0x4320 <__vector_13>
      38:	0c 94 57 20 	jmp	0x40ae	; 0x40ae <__vector_14>
      3c:	0c 94 55 20 	jmp	0x40aa	; 0x40aa <__bad_interrupt>
      40:	0c 94 55 20 	jmp	0x40aa	; 0x40aa <__bad_interrupt>
      44:	0c 94 55 20 	jmp	0x40aa	; 0x40aa <__bad_interrupt>
      48:	0c 94 55 20 	jmp	0x40aa	; 0x40aa <__bad_interrupt>
      4c:	0c 94 55 20 	jmp	0x40aa	; 0x40aa <__bad_interrupt>
      50:	0c 94 55 20 	jmp	0x40aa	; 0x40aa <__bad_interrupt>
      54:	0c 94 55 20 	jmp	0x40aa	; 0x40aa <__bad_interrupt>
      58:	0c 94 55 20 	jmp	0x40aa	; 0x40aa <__bad_interrupt>
      5c:	0c 94 55 20 	jmp	0x40aa	; 0x40aa <__bad_interrupt>
      60:	0c 94 55 20 	jmp	0x40aa	; 0x40aa <__bad_interrupt>
      64:	0c 94 55 20 	jmp	0x40aa	; 0x40aa <__bad_interrupt>
      68:	0c 94 55 20 	jmp	0x40aa	; 0x40aa <__bad_interrupt>
      6c:	0c 94 55 20 	jmp	0x40aa	; 0x40aa <__bad_interrupt>

00000070 <freqTable>:
      70:	80 80 80 80 80 80 80 80 80 80 80 80 80 80 80 80     ................
      80:	80 80 80 80 80 80 80 80 80 80 80 80 80 80 80 80     ................
      90:	80 80 80 80 80 80 80 80 80 80 80 80 80 80 80 80     ................
      a0:	80 80 80 80 80 80 80 80 80 80 80 80 80 80 80 80     ................
      b0:	80 80 80 7f 7b 78 76 7b 86 93 9d 9c 8c 71 54 44     ....{xv{.....qTD
      c0:	4a 69 98 c4 da ce 9f 5e 25 0c 1f 5a a6 e6 ff e8     Ji.....^%..Z....
      d0:	a7 58 19 03 1d 5b a3 da ea d2 9d 63 3b 31 45 6b     .X...[.....c;1Ek
      e0:	92 ab ae a1 8a 76 6c 6c 73 7c 82 84 82 81 80 80     .....vlls|......
      f0:	80 80 7f 7d 7b 80 89 8e 86 71 62 6b 8c ac ab 80     ...}{....qbk....
     100:	4a 3b 67 b1 da b8 60 1a 25 7f e0 f4 a6 35 00 34     J;g...`.%....5.4
     110:	a7 f9 e6 7f 1d 0e 5c c1 ea bb 62 29 3b 7f ba be     ......\...b);...
     120:	92 60 51 67 8a 9c 93 80 73 75 7d 82 82 80 7f 80     .`Qg....su}.....
     130:	80 80 80 7d 7b 7b 80 85 87 83 80 84 8f 92 80 5c     ...}{{.........\
     140:	40 49 7f c6 ec d0 7f 2f 13 3a 7f af ae 90 80 91     @I...../.:......
     150:	af b1 80 35 09 26 80 dd ff d5 80 3b 2d 50 7f 99     ...5.&.....;-P..
     160:	96 87 80 85 8c 8b 80 74 71 77 80 84 83 81 80 80     .......tqw......
     170:	80 80 7f 7d 7e 85 8b 82 6f 69 7f a1 a3 78 4a 53     ...}~...oi...xJS
     180:	95 cb b1 57 1f 51 bf f0 a4 29 07 6b eb f7 7f 06     ...W.Q...).k....
     190:	11 95 ff dd 57 02 37 b5 f1 b1 43 20 64 bb c9 8a     ....W.7...C d...
     1a0:	4c 4d 7f a6 9e 7b 67 71 84 8b 84 7d 7c 7f 80 80     LM...{gq...}|...
     1b0:	80 80 7f 7d 7c 7e 80 7e 7a 7e 91 a3 9b 73 48 43     ...}|~.~z~...sHC
     1c0:	6c 9d a9 91 80 94 b6 ab 5e 0a 03 5e d2 ff cc 79     l.......^..^...y
     1d0:	59 74 8a 6a 2e 24 6c d3 ff cc 70 3a 47 72 86 7a     Yt.j.$l...p:Gr.z
     1e0:	6e 7d 9b a9 97 77 66 6c 7b 84 84 81 80 80 80 80     n}...wfl{.......
     1f0:	80 80 7f 7c 7c 83 8a 89 7a 6c 6f 85 99 94 7b 68     ...||...zlo...{h
     200:	6d 81 8c 86 80 87 8f 82 61 52 76 b5 cd 95 39 16     m.......aRv...9.
     210:	5c ce fb b0 34 00 46 c0 f6 ba 50 1e 4b 9e c6 a8     \...4.F...P.K...
     220:	6f 54 66 86 95 8c 7e 78 7b 80 81 80 80 80 80 80     oTf...~x{.......
     230:	80 80 7f 7d 7c 7f 84 84 7e 79 80 8f 97 89 6b 57     ...}|...~y....kW
     240:	5d 78 92 9f a4 a4 97 74 45 31 52 97 c7 b8 7f 5d     ]x.....tE1R....]
     250:	76 a8 b0 71 21 15 64 d2 ff cb 69 2e 3e 76 9b 95     v..q!.d...i.>v..
     260:	7b 71 7f 92 93 85 76 72 78 7e 81 81 81 80 80 80     {q....vrx~......
     270:	80 80 7e 7e 84 85 79 72 86 98 80 5d 73 aa 9f 55     ..~~..yr...]s..U
     280:	4a a1 cb 72 24 70 e1 b0 25 2d c6 ed 59 01 7f ff     J..r$p..%-..Y...
     290:	a8 0d 34 d8 e3 49 11 91 eb 90 23 56 c5 b8 55 44     ..4..I....#V..UD
     2a0:	92 b4 80 57 75 9a 8e 72 73 85 87 7f 7d 7f 80 80     ...Wu..rs...}...
     2b0:	80 80 7f 7e 80 7e 77 75 86 98 90 7c 7f 8f 79 47     ...~.~wu...|..yG
     2c0:	44 85 b6 9e 80 a2 c7 88 1c 12 71 a7 80 73 c6 ff     D.........q..s..
     2d0:	ac 2a 1d 6b 80 4d 56 bb f6 b6 5d 59 7f 73 48 54     .*.k.MV...]Y.sHT
     2e0:	94 b4 99 7b 80 89 7d 6d 72 80 85 81 80 80 80 80     ...{..}mr.......
     2f0:	80 80 7f 7d 80 83 81 80 86 85 6f 60 7f b1 aa 68     ...}......o`...h
     300:	43 6b 9c 94 80 97 a5 61 19 51 de ff 80 0e 37 9d     Ck.....a.Q....7.
     310:	ad 84 8f b2 80 20 2d af f9 ab 3a 37 7f 9f 89 82     ..... -...:7....
     320:	94 8c 65 5b 7f 9e 93 78 72 7c 82 81 80 80 80 80     ..e[...xr|......
     330:	80 80 7f 7e 7e 7f 7d 7e 87 8b 80 75 85 9c 8c 57     ...~~.}~...u...W
     340:	40 68 9d a9 a4 af a6 5d 13 31 9b ca 8f 59 7f be     @h.....].1...Y..
     350:	af 73 62 71 58 2e 54 c5 ff bf 5b 41 64 76 6f 79     .sbqX.T...[Advoy
     360:	96 99 80 73 84 92 85 72 71 7c 82 82 81 80 80 80     ...s...rq|......
     370:	80 80 7e 7d 81 86 82 79 7a 81 80 7d 8c 94 74 4d     ..~}...yz..}..tM
     380:	6c be c8 61 13 5c dd dc 5e 1e 66 b5 a5 78 7f 87     l..a.\..^.f..x..
     390:	59 47 9b e9 a4 19 15 a8 ff a5 27 31 99 c2 8f 63     YG........'1...c
     3a0:	6e 83 7f 7d 8a 8c 7a 6f 7b 89 87 7e 7c 7f 80 80     n..}..zo{..~|...
     3b0:	80 80 7f 7e 7f 81 7e 79 7e 88 8b 89 8d 87 67 46     ...~..~y~.....gF
     3c0:	5d a0 ba 86 5b 87 cb b0 45 10 48 94 a8 a4 b3 ae     ]...[...E.H.....
     3d0:	76 4a 69 94 70 2c 47 bf ff b9 50 40 75 8d 73 64     vJi.p,G...P@u.sd
     3e0:	7b 93 92 8b 8b 84 74 6d 78 85 85 80 7e 80 80 80     {.....tmx...~...
     3f0:	80 80 7f 7d 7f 84 85 81 7e 7b 74 76 8d 9f 89 5e     ...}....~{tv...^
     400:	5d 8e a6 7f 5b 7f b2 94 45 3e 95 d2 a8 5d 4c 66     ]...[...E>...]Lf
     410:	76 8b bb c6 70 0e 2a b5 ff b0 38 29 75 ac a1 85     v...p.*...8)u...
     420:	7b 75 6d 74 8b 93 84 75 78 82 83 7f 7e 7f 80 80     {umt...ux...~...
     430:	80 80 7f 7d 7e 80 81 7f 80 82 80 81 8d 93 7a 54     ...}~.........zT
     440:	56 83 a4 93 80 96 ae 85 39 2c 73 b2 a9 84 7f 8c     V.......9,s.....
     450:	84 7c 8d 8f 57 1f 4a c2 ff bd 53 36 63 89 87 7e     .|..W.J...S6c..~
     460:	82 85 7f 81 8b 8c 7d 71 76 80 83 81 80 80 80 80     ......}qv.......
     470:	80 80 7e 80 85 80 74 80 93 80 62 7f a8 7f 4b 7f     ..~...t...b...K.
     480:	c1 7f 31 7f da 7f 1a 7f ee 7f 09 7f fc 80 00 7f     ..1.............
     490:	ff 80 01 7f f9 80 0c 7f ea 80 1f 7f d4 80 37 80     ..............7.
     4a0:	bb 80 51 7f a2 80 67 80 8e 80 78 7f 82 80 7f 80     ..Q...g...x.....
     4b0:	80 80 7f 7f 80 7b 74 7d 8e 8a 80 8f 9d 77 4a 5e     .....{t}.....wJ^
     4c0:	87 73 61 a6 e5 ab 58 6d 8b 3f 07 6a db b9 80 ba     .sa...Xm.?.j....
     4d0:	de 69 00 3a 8d 6b 53 b2 f7 ae 5a 70 89 54 36 74     .i.:.kS...Zp.T6t
     4e0:	ab 98 80 92 99 7a 67 75 81 7e 7c 82 83 80 7f 80     .....zgu.~|.....
     4f0:	80 80 7f 7e 80 80 7e 87 8c 78 62 75 9a 96 7a 7f     ...~..~..xbu..z.
     500:	86 5d 4c 98 da 9c 3d 4d 8a 7f 74 ba d1 5a 00 5a     .]L...=M..t..Z.Z
     510:	d4 bc 73 7f 8b 47 34 a0 ea 9d 40 54 88 7f 79 9f     ..s..G4...@T..y.
     520:	a6 70 51 73 96 8e 7d 80 81 7a 7a 81 82 80 7f 80     .pQs..}..zz.....
     530:	80 80 7f 7e 7e 7c 7b 83 8c 82 74 83 9a 8c 6a 68     ...~~|{...t...jh
     540:	6f 5b 60 af ec b5 57 4a 64 51 50 9f d0 8b 4c 8b     o[`...WJdQP...L.
     550:	d3 a0 4d 4e 61 44 51 be ff b8 59 52 6b 60 63 90     ..MNaDQ...YRk`c.
     560:	a6 84 6d 83 96 87 76 78 7c 7a 7c 82 83 80 7f 80     ..m...vx|z|.....
     570:	80 80 7e 7e 81 83 7f 81 82 74 6f 91 a8 7b 46 68     ..~~.....to..{Fh
     580:	af a7 6e 6a 80 67 68 ba d0 53 00 75 fc be 39 40     ..nj.gh..S.u..9@
     590:	8d 8b 7c b0 ae 3f 1a 9b f5 99 2b 4e a0 9e 7e 85     ..|..?....+N..~.
     5a0:	86 65 66 94 a2 7d 65 78 8a 86 7e 7e 80 7f 7f 80     .ef..}ex..~~....
     5b0:	80 80 7f 7e 7f 7f 7c 7f 83 7f 80 97 a1 77 46 58     ...~..|......wFX
     5c0:	8c 93 7c 8b a3 8d 7b 9c 95 33 00 69 e6 d3 7f 7b     ..|...{..3.i...{
     5d0:	99 78 55 71 7a 43 46 b6 fc b2 50 52 7c 77 67 7c     .xUqzCF...PR|wg|
     5e0:	8b 7e 7f 9a 9c 7a 65 73 82 82 7f 80 81 80 7f 80     .~...zes........
     5f0:	80 80 7f 7d 7f 82 83 86 83 71 68 84 a2 8e 67 6f     ...}.....qh...go
     600:	8d 81 69 84 a4 85 62 81 96 5f 49 a6 e9 8f 19 34     ..i...b.._I....4
     610:	99 b8 a6 a3 7a 23 28 ae ff aa 36 39 7c 96 95 9d     ....z#(...69|...
     620:	8b 60 5a 84 9d 89 74 7a 83 80 7d 80 81 80 7f 80     .`Z...tz..}.....
     630:	80 80 7f 7e 7e 7f 7f 83 84 7b 77 8b 9d 86 60 61     ...~~....{w...`a
     640:	79 7a 76 97 b6 9b 73 77 75 44 3a 91 da aa 59 66     yzv...swuD:...Yf
     650:	9f 9e 7e 75 5e 2f 49 bd ff b8 52 42 68 79 7e 8f     ..~u^/I...RBhy~.
     660:	8e 75 71 8d 99 84 71 76 7e 7f 7f 81 81 80 7f 80     .uq...qv~.......
     670:	80 80 7e 7f 85 83 75 78 8e 8d 6f 6c 90 97 73 68     ..~...ux..ol..sh
     680:	87 92 7d 78 80 77 7d 9b 8c 51 64 bd b0 39 37 c8     ..}x.w}..Qd..97.
     690:	df 3f 0d b2 fd 61 00 89 f9 89 15 68 d7 9f 3e 5e     .?...a.....h..>^
     6a0:	ac 9d 65 69 8d 8e 7a 78 81 82 7f 7f 80 7f 7f 80     ..ei..zx........
     6b0:	80 80 7f 7f 82 7f 75 78 8c 91 80 7d 90 8a 66 57     ......ux...}..fW
     6c0:	6f 84 88 96 a4 99 8a 86 64 31 45 9c b1 76 7f dc     o.......d1E..v..
     6d0:	d3 42 06 71 b0 5b 34 aa ff a7 40 64 a1 76 3a 60     .B.q.[4...@d.v:`
     6e0:	a6 a6 80 7d 8d 86 74 72 7c 80 80 81 81 80 80 80     ...}..tr|.......
     6f0:	80 80 7e 7e 82 82 7c 80 8c 83 68 6a 90 a2 88 6f     ..~~..|...hj...o
     700:	6f 71 74 8e a4 90 71 6a 64 5f 92 d9 b1 30 19 94     oqt...qjd_...0..
     710:	d3 83 58 a3 b0 3d 17 a1 ff 9e 28 4d a1 96 69 81     ..X..=....(M..i.
     720:	a6 88 5a 66 8d 95 83 7a 7c 7d 7e 80 81 80 7f 80     ..Zf...z|}~.....
     730:	80 80 7f 7e 80 7f 7a 7e 8b 88 77 77 8f 95 79 61     ...~..z~..ww..ya
     740:	63 6e 7e 9f b6 a3 7e 66 50 44 71 b8 b0 62 59 ae     cn~...~fPDq..bY.
     750:	ca 76 43 75 86 42 3c b3 ff af 47 51 84 79 5d 7b     .vCu.B<...GQ.y]{
     760:	a2 93 71 76 8d 8d 7d 76 79 7d 7f 81 81 80 7f 80     ..qv..}vy}......
     770:	80 80 7e 7e 83 84 7d 7b 83 80 74 7e 98 8d 63 5e     ..~~..}{..t~..c^
     780:	8d a9 90 6b 5b 68 95 bd 96 3e 3f a3 ca 7b 4c 84     ...k[h...>?..{L.
     790:	99 5a 5f c6 c9 3b 0a 9b ff 98 1e 4b b2 ac 6d 6c     .Z_..;.....K..ml
     7a0:	8b 82 6d 7e 94 88 72 75 83 86 81 7e 7e 7f 80 80     ..m~..ru...~~...
     7b0:	80 80 7f 7e 81 80 7b 7b 84 86 80 87 96 85 5d 54     ...~..{{......]T
     7c0:	79 98 93 85 80 85 99 a4 75 2c 32 8f c3 9b 7f a2     y.......u,2.....
     7d0:	9f 58 49 8f 99 41 32 af ff ab 3f 50 91 89 60 6b     .XI..A2...?P..`k
     7e0:	8e 8e 7f 88 92 83 70 71 7e 83 81 80 80 80 80 80     ......pq~.......
     7f0:	80 80 7e 7d 81 83 80 80 84 7c 6e 78 96 97 77 66     ..~}.....|nx..wf
     800:	79 8a 85 7f 80 7f 87 8f 75 4f 6c bd c3 66 33 6d     y.......uOl..f3m
     810:	9f 88 86 b4 99 2a 1d a7 ff a4 2d 3e 91 a1 83 84     .....*....->....
     820:	8e 78 63 77 92 8e 7b 77 7e 81 80 7f 80 7f 80 80     .xcw..{w~.......
     830:	80 80 7f 7e 7f 80 7e 7f 85 81 78 81 94 8f 6e 5d     ...~..~...x...n]
     840:	6e 83 8a 8f 95 92 8d 84 62 3d 59 a8 bf 83 61 89     n.......b=Y...a.
     850:	a2 7d 6c 8c 7c 32 39 b5 ff b0 45 45 7d 87 74 7e     .}l.|29...EE}.t~
     860:	8f 84 74 81 91 89 78 74 7b 80 81 80 80 80 80 80     ..t...xt{.......
     870:	80 7f 7e 81 84 7a 79 8d 86 67 7f a2 73 55 9f aa     ..~..zy..g..sU..
     880:	4a 5e cb 8d 24 8f e1 4f 25 d2 c6 12 59 fe 80 00     J^..$..O%...Y...
     890:	a8 f2 34 27 e3 b6 11 6e eb 6f 23 a9 c5 47 55 bb     ..4'...n.o#..GU.
     8a0:	92 4b 80 a8 75 65 8e 8d 73 7a 87 80 7d 80 80 80     .K..ue..sz..}...
     8b0:	80 80 7f 80 80 78 77 84 86 7d 90 a3 80 60 79 76     .....xw..}...`yv
     8c0:	43 60 b7 ae 80 b4 c8 52 1a 6c 71 2d 80 ff c7 73     C`.....R.lq-...s
     8d0:	ac a9 1c 08 80 89 56 a8 f8 a5 5d 87 7f 34 47 95     ......V...]..4G.
     8e0:	94 7a 9a a9 7f 6c 7c 7c 72 7b 85 82 80 80 80 80     .z...l||r{......
     8f0:	80 80 7f 7f 80 7c 81 8f 86 6b 70 87 7f 81 a8 96     .....|...kp.....
     900:	46 48 9b a2 80 a7 a3 2e 1e ac da 83 80 9b 3a 11     FH............:.
     910:	ab ff 8f 50 80 5f 30 9a f4 97 3d 67 7f 61 88 c1     ...P._0...=g.a..
     920:	93 52 66 88 7f 80 92 87 72 77 82 82 80 80 80 80     .Rf.....rw......
     930:	80 80 7f 7f 7e 7a 7d 89 87 78 7f 90 85 7b 8c 79     ....~z}..x...{.y
     940:	40 4e 9d b4 a4 bb a6 36 13 72 9b 73 8f bd 80 58     @N.....6.r.s...X
     950:	af ce 62 2a 58 59 54 b7 ff b2 5b 62 64 4a 6f a8     ..b*XYT...[bdJo.
     960:	96 6f 80 93 84 7d 85 7d 71 78 82 83 81 80 80 80     .o...}.}qx......
     970:	80 80 7e 7f 81 80 82 88 7a 67 7f a2 8a 65 75 80     ..~.....zg...eu.
     980:	6e 94 c0 72 1f 70 d3 9e 62 80 69 3c a1 fe 7f 00     n..r.p..b.i<....
     990:	5d c7 98 80 a0 5e 21 91 f1 90 31 66 96 7f 8d a4     ]....^!...1f....
     9a0:	70 4b 7f a8 89 6f 7b 7f 7c 83 86 7f 7c 7f 80 80     pK...o{.|...|...
     9b0:	80 80 7f 7f 7f 7d 7e 84 7e 76 8b a3 8c 68 68 69     .....}~.~v...hhi
     9c0:	5f 86 b6 90 5d 92 c6 89 49 54 4b 41 a5 ff b0 4c     _...]...ITKA...L
     9d0:	76 a3 6a 51 71 5a 4a ae f8 aa 53 63 76 62 73 92     v.jQqZJ...Scvbs.
     9e0:	7b 6a 91 a9 8a 70 75 78 78 80 85 80 7e 80 80 80     {j...puxx...~...
     9f0:	80 80 7f 7e 7f 80 85 8c 7e 68 74 92 8d 7e 89 80     ...~....~ht..~..
     a00:	5d 73 a6 89 5b 8b b2 6e 45 7f 95 7b a8 c1 4c 01     ]s..[..nE..{..L.
     a10:	76 e6 bb 80 70 39 2a a7 ff a4 38 4a 75 7f a1 b4     v...p9*...8Ju...
     a20:	7b 4b 6d 95 8b 7e 84 7f 78 7e 83 80 7e 80 80 80     {Km..~..x~..~...
     a30:	80 80 7f 7e 7e 7d 81 87 80 73 7f 95 8d 7a 7a 6e     ...~~}...s...zzn
     a40:	56 70 a4 9b 80 9f ae 68 39 5d 73 71 a9 cf 7f 40     Vp.....h9]sq...@
     a50:	84 c0 8d 5a 57 3f 4a b8 ff b3 53 4f 63 68 87 a1     ...ZW?J...SOch..
     a60:	82 65 7f 99 8b 7c 7d 7a 76 7d 83 81 80 80 80 80     .e...|}zv}......
     a70:	80 80 7e 80 84 80 78 80 86 80 7f 80 71 80 a4 80     ..~...x.....q...
     a80:	41 80 d7 7f 16 80 f0 7f 16 80 d1 7f 53 80 7f 80     A...........S...
     a90:	ae 7f 29 7f f3 7f 00 7f fc 80 15 7f cf 80 4e 80     ..)...........N.
     aa0:	95 80 80 7f 73 80 90 7f 71 80 88 7f 7c 80 80 80     ....s...q...|...
     ab0:	80 80 7f 7f 81 7c 77 7e 87 87 8b 8b 7a 7a 87 68     .....|w~....zz.h
     ac0:	40 77 c5 9b 5b 9f d9 72 13 51 91 70 70 a8 b3 a9     @w..[..r.Q.pp...
     ad0:	af 70 1b 4e a7 71 36 a4 ff a0 42 74 9b 60 46 77     .p.N.q6...Bt.`Fw
     ae0:	96 91 92 8d 7b 7c 83 78 71 7e 86 81 7e 80 80 80     ....{|.xq~..~...
     af0:	80 80 7e 7e 81 80 7e 85 87 7a 74 77 7a 91 aa 80     ..~~..~..ztwz...
     b00:	40 64 b2 93 5b 96 c0 57 13 7f de ae 70 62 4c 61     @d..[..W....pbLa
     b10:	af b0 6d 7f a7 52 19 9a ff 97 2a 5d 9b 7f 75 99     ..m..R....*]..u.
     b20:	96 73 6d 76 7b 8b 93 7f 71 7b 84 81 7e 80 80 80     .smv{...q{..~...
     b30:	80 80 7f 7e 80 7d 7c 82 87 81 7f 82 7f 89 92 6e     ...~.}|........n
     b40:	40 64 ac a3 80 a8 ba 57 13 5d a9 97 80 88 7f 88     @d.....W.]......
     b50:	af 98 53 5a 80 53 3e ae ff aa 49 5d 7f 68 66 8c     ..SZ.S>...I].hf.
     b60:	96 83 80 82 7f 85 88 7a 71 7b 84 82 80 80 80 80     .......zq{......
     b70:	80 80 7e 7e 82 82 7e 80 7e 77 7f 8c 83 7d 84 6f     ..~~..~.~w...}.o
     b80:	5d 9c ce 70 13 6e e5 aa 45 5f 8a 78 89 ad 7f 52     ]..p.n..E_.x...R
     b90:	76 87 74 a3 bf 50 0d 94 ff 92 20 5c ac 96 79 84     v.t..P.... \..y.
     ba0:	7b 6d 7f 8e 82 7e 82 7a 78 84 87 7f 7c 7f 80 80     {m...~.zx...|...
     bb0:	80 80 7f 7e 80 7f 7c 7f 80 7f 88 91 86 79 76 61     ...~..|......yva
     bc0:	56 8e c1 89 49 8a d5 95 39 44 6b 6e 92 c0 a6 7c     V...I...9Dkn...|
     bd0:	84 7a 58 75 92 51 34 aa ff a6 41 5c 8c 79 69 7c     .zXu.Q4...A\.yi|
     be0:	82 7e 8e 94 85 7b 7b 76 76 82 86 80 7e 80 80 80     .~...{{vv...~...
     bf0:	80 80 7e 7e 80 81 81 84 80 75 77 83 86 8b 90 73     ..~~.....uw....s
     c00:	56 80 b3 83 49 83 c2 81 39 67 a4 9d 92 8b 59 47     V...I...9g....YG
     c10:	84 aa 96 9a 92 3a 1f a2 ff 9f 2f 4b 8c 90 8c 95     .....:..../K....
     c20:	82 68 71 83 85 87 87 7b 76 80 85 80 7e 80 80 80     .hq....{v...~...
     c30:	80 80 7f 7e 7f 7f 7f 82 81 7c 7f 89 87 85 82 67     ...~.....|.....g
     c40:	51 7b ae 93 6a 95 bc 79 31 50 86 8e 98 a1 7f 6b     Q{..j..y1P.....k
     c50:	8d 98 79 77 76 3f 3b b1 ff ad 46 4f 79 7a 7c 8c     ..ywv?;...FOyz|.
     c60:	86 77 7f 8a 86 83 81 78 75 7f 84 81 7f 80 80 80     .w.....xu.......
     c70:	80 7f 7e 80 85 7c 75 87 8e 72 6f 93 90 68 73 97     ..~..|u..ro..hs.
     c80:	87 6d 7d 87 80 88 7d 64 8c ae 64 42 b0 c6 37 37     .m}...}d..dB..77
     c90:	df c0 0d 4d fd 9e 00 76 f9 76 15 97 d7 60 3e a1     ...M...v.v...`>.
     ca0:	ac 62 65 96 8d 71 7a 87 81 7d 7f 80 80 80 7f 80     .be..qz..}......
     cb0:	80 80 7f 80 82 7a 75 83 8c 7e 7f 99 90 69 66 79     .....zu..~...ify
     cc0:	6f 69 88 a0 a4 a5 8a 5f 64 72 45 45 b1 da 80 76     oi....._drEE...v
     cd0:	d3 9d 06 2a b0 86 34 9d ff 9a 40 85 a1 4a 3a 8f     ...*..4...@..J:.
     ce0:	a6 7c 80 9d 8d 71 74 7d 7c 7c 80 81 81 80 80 80     .|...qt}||......
     cf0:	80 80 7e 7f 82 7d 7c 8b 8c 70 68 85 90 81 88 90     ..~..}|..ph.....
     d00:	6f 57 74 99 a4 9c 71 44 64 a0 92 82 b1 94 19 2f     oWt...qDd....../
     d10:	d3 de 58 5c b0 68 17 93 ff 91 28 6d a1 69 69 b0     ..X\.h....(m.ii.
     d20:	a6 5e 5a 86 8d 80 83 85 7c 79 7e 81 81 80 7f 80     .^Z.....|y~.....
     d30:	80 80 7f 7f 80 7b 7a 86 8b 7a 77 8c 8f 7c 79 7a     .....{z..zw..|yz
     d40:	63 5a 7e a7 b6 ac 7e 49 50 75 71 76 b0 ad 59 62     cZ~...~IPuqv..Yb
     d50:	ca ba 43 40 86 63 3c a9 ff a5 47 6a 84 57 5d 9e     ..C@.c<...Gj.W].
     d60:	a2 73 71 8e 8d 7d 7d 7e 79 7a 7f 82 81 80 7f 80     .sq..}}~yz......
     d70:	80 80 7e 7f 83 80 7d 86 83 6d 74 9a 98 6c 63 7f     ..~...}..mt..lc.
     d80:	8d 8f 90 75 5b 74 95 96 96 80 3f 4c ca de 4c 1f     ...u[t....?L..L.
     d90:	99 b5 5f 7f c9 66 0a 8d ff 8c 1e 6c b2 7f 6d 9b     .._..f.....l..m.
     da0:	8b 58 6d 9e 94 73 72 80 83 82 81 7f 7e 7f 80 80     .Xm..sr.....~...
     db0:	80 80 7f 7f 81 7d 7b 83 84 78 7f 9c 96 6c 5d 6e     .....}{..x...l]n
     dc0:	79 84 93 8c 80 8e 99 87 75 5d 32 4e c3 e5 7f 56     y.......u]2N...V
     dd0:	9f 9c 49 5a 99 61 32 a4 ff a1 3f 69 91 68 60 8e     ..IZ.a2...?i.h`.
     de0:	8e 6e 7f a0 92 74 70 7a 7e 80 81 80 80 80 80 80     .n...tpz~.......
     df0:	80 80 7e 7e 81 80 80 89 84 6e 6e 8d 96 7e 77 7f     ..~~.....nn..~w.
     e00:	79 76 85 87 80 88 87 72 75 7f 6c 7c c3 b0 33 21     yv.....ru.l|..3!
     e10:	9f cc 86 7f 99 4b 1d 9d ff 9b 2d 57 91 7f 83 a7     .....K....-W....
     e20:	8e 58 63 8f 92 7f 7b 80 7e 7e 80 80 80 80 80 80     .Xc...{.~~......
     e30:	80 80 7f 7e 7f 7e 7e 86 85 76 78 91 94 7b 6e 71     ...~.~~..vx..{nq
     e40:	6e 73 8a 96 95 99 8d 6d 62 64 59 74 bf bf 61 4c     ns.....mbdYt..aL
     e50:	a2 b3 6c 62 7c 4c 39 ad ff a9 45 58 7d 6d 74 9a     ..lb|L9...EX}mt.
     e60:	8f 6a 74 94 91 7d 78 7b 7b 7e 81 81 80 80 80 80     .jt..}x{{~......
     e70:	80 80 7e 80 85 80 76 80 8b 80 74 7f 85 80 83 7f     ..~...v...t.....
     e80:	70 80 9b 7f 5d 80 a3 7f 65 80 87 7f 92 80 4f 7f     p...]...e.....O.
     e90:	cf 7f 16 7f fa 7f 00 7f fa 80 15 7f d4 80 43 80     ..............C.
     ea0:	a4 80 6e 7f 85 80 81 80 7c 80 82 7f 7e 80 80 80     ..n.....|...~...
     eb0:	80 80 7f 7f 82 7d 76 7e 8b 85 7f 88 88 7b 75 6e     .....}v~.....{un
     ec0:	63 79 9c 94 80 97 a4 76 50 5d 69 74 99 9e 7f 9f     cy.....vP]it....
     ed0:	ca 74 0e 5a c2 74 26 9b ff 98 35 77 ad 68 3f 79     .t.Z.t&...5w.h?y
     ee0:	a2 8c 80 89 87 7d 7b 7a 79 7e 82 81 80 80 80 80     .....}{zy~......
     ef0:	80 80 7e 7f 82 80 7b 84 8b 7b 6e 79 88 8d 8f 7f     ..~...{..{ny....
     f00:	63 6b 8d 8e 80 90 92 61 50 7f a3 a2 99 69 33 69     ck.....aP....i3i
     f10:	ca a4 4c 7f c2 5e 10 93 ff 91 23 66 ad 7f 62 92     ..L..^....#f..b.
     f20:	a2 76 63 78 87 88 87 80 79 7c 81 80 80 80 80 80     .vcx....y|......
     f30:	80 80 7f 7f 81 7e 7a 82 8a 81 78 81 89 87 82 71     .....~z...x....q
     f40:	5c 6a 90 9c 95 a0 96 5f 44 64 85 92 9d 86 61 86     \j....._Dd....a.
     f50:	c4 93 3e 62 9d 5c 2f a5 ff a2 3c 64 94 6d 5a 8a     ..>b.\/...<d.mZ.
     f60:	9f 82 74 82 88 84 81 7b 77 7c 81 81 80 80 80 80     ..t....{w|......
     f70:	80 80 7e 7f 83 81 7b 80 84 79 77 89 8e 7d 73 73     ..~...{..yw..}ss
     f80:	79 95 a3 74 49 72 ad 9f 75 67 64 7a ac a1 59 5d     y..tIr..ugdz..Y]
     f90:	9f 85 51 9a d4 5c 07 8f ff 8d 1b 65 ba 90 65 83     ..Q..\.....e..e.
     fa0:	8e 71 71 8a 8c 7e 7a 7b 7e 83 83 7f 7e 7f 80 80     .qq..~z{~...~...
     fb0:	80 80 7f 7f 81 7f 7a 7f 85 7f 7f 8e 8e 7a 6b 67     ......z......zkg
     fc0:	6e 8b a1 87 6a 88 ab 91 62 50 52 72 ac b3 7f 7d     n...j...bPRr...}
     fd0:	a2 7b 42 77 ab 5a 27 a1 ff 9e 36 63 9e 7a 5c 7d     .{Bw.Z'...6c.z\}
     fe0:	8f 7e 7f 90 8c 7c 76 78 7b 81 83 80 7f 80 80 80     .~...|vx{.......
     ff0:	80 80 7e 7e 81 81 7e 83 85 77 71 82 8e 88 80 75     ..~~..~..wq....u
    1000:	6e 80 96 82 6a 83 9c 80 62 6c 80 97 ac 89 42 52     n...j...bl....BR
    1010:	a2 a1 73 95 ab 48 16 9b ff 99 28 55 9e 8d 78 91     ..s..H....(U..x.
    1020:	8f 6d 69 82 8c 85 80 7c 7b 80 82 80 7f 80 80 80     .mi....|{.......
    1030:	80 80 7f 7e 80 7f 7d 82 85 7c 7a 87 8e 84 77 6b     ...~..}..|z...wk
    1040:	66 7c 97 8f 80 92 9e 7a 55 58 6d 8b ad 9c 66 6e     f|.....zUXm...fn
    1050:	a4 94 61 78 90 4a 2f a9 ff a5 3c 57 8b 7b 6e 8a     ..ax.J/...<W.{n.
    1060:	90 78 76 89 8c 82 7c 79 7a 7f 82 80 80 80 80 80     .xv...|yz.......
    1070:	80 7f 7f 82 7e 7a 8b 7d 6f 96 7f 5e a3 87 4a ac     ....~z.}o..^..J.
    1080:	95 34 b1 a8 1f ae bf 0f a4 d6 07 94 eb 08 7f f9     .4..............
    1090:	11 6a ff 22 57 fd 37 4a f1 4e 43 df 64 44 c9 75     .j."W.7J.NC.dD.u
    10a0:	4c b2 80 59 9e 84 67 8e 84 74 84 82 7c 80 80 80     L..Y..g..t..|...
    10b0:	80 80 7f 81 7c 78 80 7b 7a 98 91 7e 9a 7b 49 75     ....|x.{z..~.{Iu
    10c0:	6c 49 a9 be 80 c7 b5 2e 5f 6c 05 75 d1 79 ca ff     lI......_l.u.y..
    10d0:	5a 5d 8a 03 2f af 6d 97 fd 95 70 a4 48 31 86 6e     Z]../.m...p.H1.n
    10e0:	6e b4 9b 7e 96 7d 67 7c 7b 77 84 83 80 80 80 80     n..~.}g|{w......
    10f0:	80 80 7f 80 7c 7c 8b 86 7a 84 6f 62 9a 9d 7b 98     ....||..z.ob..{.
    1100:	6d 2f 8c b2 80 b9 90 09 5f ae 76 cd d0 14 36 96     m/......_.v...6.
    1110:	5b ba ff 4d 31 82 44 88 fa 87 4e 81 49 60 c9 9e     [..M1.D...N.I`..
    1120:	6e 89 65 5d 96 92 7e 87 7b 73 81 83 80 80 80 80     n.e]..~.{s......
    1130:	80 80 7f 7f 7c 7a 84 82 7e 8a 7f 76 97 8e 6b 79     ....|z..~..v..ky
    1140:	5d 3f 92 be a4 c7 97 20 45 72 52 a6 c7 5e 7f b9     ]?..... ErR..^..
    1150:	76 98 b0 2a 21 73 64 a9 ff a6 69 76 3e 4a 9b 8c     v..*!sd...iv>J..
    1160:	7b 97 80 75 93 89 76 7d 78 75 81 83 81 80 80 80     {..u..v}xu......
    1170:	80 80 7f 80 7e 80 8b 80 6f 80 7f 80 a3 7f 4a 7f     ....~...o.....J.
    1180:	95 80 b1 80 1f 7f bf 80 a4 80 07 7f eb 80 7f 7f     ................
    1190:	11 7f ff 80 57 80 37 7f f1 7f 43 7f 64 7f c9 80     ....W.7...C.d...
    11a0:	4c 7f 80 7f 9e 80 67 7f 84 80 84 80 7c 7f 80 80     L.....g.....|...
    11b0:	80 80 7f 7f 7d 7c 84 7e 75 87 8b 8b 9f 7a 46 68     ....}|.~u....zFh
    11c0:	7b 77 ae 9b 5c 9e bb 72 77 52 00 71 df a8 b2 a9     {w..\..rwR.q....
    11d0:	3d 70 b6 4e 3a 71 58 a3 fe a0 5e 74 50 60 9f 77     =p.N:qX...^tP`.w
    11e0:	61 91 92 8d 9a 7c 65 78 7e 7e 84 81 7e 80 80 80     a....|ex~~..~...
    11f0:	80 80 7f 7e 7d 80 8b 85 76 7a 75 78 9d 90 6a 7f     ...~}...vzux..j.
    1200:	7b 66 99 92 5e 95 a0 5a 78 80 4f ab d9 64 50 63     {f..^..Zx.O..dPc
    1210:	41 ad ff 80 3e 55 40 98 f7 96 4a 5f 52 7f c9 97     A...>U@...J_R...
    1220:	62 74 6e 77 99 8a 76 7f 7e 7c 82 81 7e 80 80 80     btnw..v.~|..~...
    1230:	80 80 7f 7e 7c 7d 86 82 7a 81 7f 82 9b 89 61 6e     ...~|}..z.....an
    1240:	6c 64 9b a3 80 a8 a3 57 5e 5d 3c 97 d3 88 7f 88     ld.....W^]<.....
    1250:	59 98 c8 5a 2e 53 57 ae ff aa 5e 5d 47 68 a9 8c     Y..Z.SW...^]Gh..
    1260:	6e 83 80 82 97 85 72 7a 7b 7b 82 82 80 80 80 80     n.....rz{{......
    1270:	80 7f 7e 80 81 80 82 77 7a 98 80 5d 8a 9a 75 7f     ..~....wz..]..u.
    1280:	6e 6b c0 8d 1f 8f d3 61 62 80 69 c3 a1 01 7f ff     nk.....ab.i.....
    1290:	5d 38 98 80 a0 a1 21 6e f1 6f 31 99 96 80 8d 5b     ]8....!n.o1....[
    12a0:	70 b4 80 57 89 90 7b 7f 7c 7c 86 80 7c 80 80 80     p..W..{.||..|...
    12b0:	80 80 7f 80 7f 7d 7e 78 7e 98 8a 72 8c 8c 68 69     .....}~x~..r..hi
    12c0:	60 69 b5 a2 5e a7 c5 5e 49 55 4c a1 a5 4d af ff     `i..^..^IUL..M..
    12d0:	76 3f 6b 51 72 89 4b 95 f6 93 54 87 76 62 74 5e     v?kQr.K...T.vbt^
    12e0:	7b b4 91 6f 8a 88 75 78 78 7c 85 82 7e 80 80 80     {..o..uxx|..~...
    12f0:	80 80 7f 7f 7f 80 85 7f 7e 8c 74 5d 8d a5 89 80     ........~.t]....
    1300:	5d 55 a6 9d 5b a2 b2 40 45 80 95 e1 a8 03 4c c2     ]U..[..@E.....L.
    1310:	76 7b bb 80 70 6c 2a 8c ff 8b 38 70 75 7f a1 7d     v{..pl*...8pu..}
    1320:	7b 9b 6d 57 8b 97 84 7f 78 79 83 81 7e 80 80 80     {.mW....xy..~...
    1330:	80 80 7f 7f 7e 7d 81 7e 80 8f 80 6e 8d 97 7a 6e     ....~}.~...n..zn
    1340:	56 59 a4 ab 80 b0 ae 46 39 5d 73 bd a9 41 7f d0     VY.....F9]s..A..
    1350:	84 70 8d 5a 57 66 4a a4 ff a1 53 6c 63 68 87 77     .p.ZWfJ...Slch.w
    1360:	82 a1 80 6b 8b 8e 7d 7a 76 79 83 82 80 80 80 80     ...k..}zvy......
    1370:	80 80 7e 7f 80 82 85 7a 75 89 7f 72 95 90 64 6f     ..~....zu..r..do
    1380:	7a 8d c2 7a 13 79 d6 93 77 5f 41 ab c1 4e 7f b2     z..z.y..w_A..N..
    1390:	3c 52 c2 a3 89 6a 1d 86 ff 86 2e 6f 86 96 a5 68     <R...j.....o...h
    13a0:	60 94 80 6f 92 8a 73 7a 7e 82 86 7f 7c 7f 80 80     `..o..sz~...|...
    13b0:	80 80 7f 7f 7f 7f 81 7a 7a 8d 88 7e 93 88 5e 61     .......zz..~..^a
    13c0:	6c 83 b9 90 49 92 ca 84 5e 44 34 95 bc 79 a6 c5     l...I...^D4..y..
    13d0:	59 52 93 75 69 64 41 a0 ff 9d 4b 6b 70 79 8a 68     YR.uidA...Kkpy.h
    13e0:	6e 9c 8e 7d 90 85 70 76 7b 80 85 80 7e 80 80 80     n..}..pv{...~...
    13f0:	80 80 7f 7e 7f 81 87 80 7a 82 77 6f 93 99 77 73     ...~....z.wo..ws
    1400:	6c 75 aa 8a 49 8c b7 70 5e 67 6d c3 bc 44 59 8f     lu..I..p^gm..DY.
    1410:	59 82 d0 9a 69 4d 2b 98 ff 96 39 59 70 90 ad 81     Y...iM+...9Yp...
    1420:	6e 86 71 6c 90 90 7c 7b 7b 7e 84 80 7e 80 80 80     n.ql..|{{~..~...
    1430:	80 80 7f 7e 7e 7f 83 7f 7c 87 80 79 92 91 6f 67     ...~~...|..y..og
    1440:	63 72 a8 99 6a 9c b3 6b 4f 50 5a ac b9 68 7f a5     cr..j..kOPZ..h..
    1450:	6a 78 a7 77 56 4f 45 a9 ff a5 4e 5a 63 7a 96 7c     jx.wVOE...NZcz.|
    1460:	76 8f 80 78 90 8a 78 78 79 7d 83 81 7f 80 80 80     v..x..xxy}......
    1470:	80 7f 7e 81 81 7c 7f 7e 82 8b 6f 6e a8 84 46 97     ..~..|.~..on..F.
    1480:	af 58 6e 95 80 98 68 45 d0 ac 00 8a fc 41 39 bf     .Xn...hE.....A9.
    1490:	8d 74 7c 4f ae c0 1a 64 f5 66 2b b1 a0 61 7e 7a     .t|O...d.f+..a~z
    14a0:	86 9a 66 6b a2 82 65 87 8a 79 7e 81 80 80 7f 80     ..fk..e..y~.....
    14b0:	80 80 7f 80 7f 7a 7c 7d 83 90 7f 7e a1 7d 46 79     .....z|}...~.}Fy
    14c0:	8c 5b 7c a9 a3 af 7b 4a 95 72 00 78 e6 7b 7f d5     .[|...{J.r.x.{..
    14d0:	99 68 55 2d 7a 9f 46 8f fc 8e 50 97 7c 4b 67 74     .hU-z.F...P.|Kgt
    14e0:	8b a3 80 7e 9c 7e 65 7d 82 7a 7f 82 81 80 7f 80     ...~.~e}.z......
    14f0:	80 80 7f 80 7f 7d 83 84 83 82 68 6b a2 94 67 90     .....}....hk..g.
    1500:	8d 48 69 a3 a4 a8 62 2d 96 a0 49 b6 e9 35 19 8f     .Hi...b-..I..5..
    1510:	99 a8 a6 5c 7a 81 28 85 ff 85 36 81 7c 69 95 94     ...\z.(...6.|i..
    1520:	8b 86 5a 67 9d 8d 74 85 83 77 7d 82 81 80 7f 80     ..Zg..t..w}.....
    1530:	80 80 7f 7f 7e 7b 7f 82 84 88 77 78 9d 8b 60 7a     ....~{....wx..`z
    1540:	79 4f 76 ae b6 b5 73 38 75 75 3a 9d da 66 59 aa     yOv...s8uu:..fY.
    1550:	9f 92 7e 40 5e 76 49 9f ff 9c 52 78 68 57 7e 89     ..~@^vI...RxhW~.
    1560:	8e 91 71 77 99 87 71 7e 7e 78 7f 82 81 80 7f 80     ..qw..q~~x......
    1570:	80 80 7e 80 80 80 83 80 7b 80 75 7f a7 7f 46 7f     ..~.....{.u...F.
    1580:	a7 7f 85 80 5e 7f 86 7f c2 80 00 7f f8 80 50 7f     ....^.........P.
    1590:	62 7f aa 80 91 80 22 7f f6 80 32 7f 8b 7f 98 80     b....."...2.....
    15a0:	72 80 6e 7f a1 80 65 80 89 80 80 80 7e 80 80 80     r.n...e.....~...
    15b0:	80 80 7f 7f 7f 7d 80 7e 7e 85 7f 88 a2 7b 46 6e     .....}.~~....{Fn
    15c0:	8f 79 8b 93 80 96 8e 76 9a 5e 00 75 e9 9d 7f 9e     .y.....v.^.u....
    15d0:	74 74 83 5b 70 75 41 9a fb 97 4b 77 75 69 81 7a     tt.[puA...Kwui.z
    15e0:	7a 8c 80 89 9d 7d 65 7a 83 7f 81 81 80 80 80 80     z....}ez........
    15f0:	80 80 7f 7f 7f 80 85 84 7e 7b 6e 79 a3 8d 5e 7f     ........~{ny..^.
    1600:	8f 6b 7c 8e 80 90 7b 61 9b 80 35 a2 ed 69 33 69     .k|...{a..5..i3i
    1610:	74 a4 c0 80 70 5e 2a 93 ff 91 38 66 75 7f a5 92     t...p^*...8fu...
    1620:	7a 76 63 78 9e 88 70 80 83 7c 7f 80 80 80 7f 80     zvcx..p..|......
    1630:	80 80 7f 7f 7e 7e 82 82 80 81 78 81 9f 87 5b 71     ....~~....x...[q
    1640:	80 6a 83 9c 95 a0 84 5f 80 64 2d 92 e0 86 61 86     .j....._.d-...a.
    1650:	80 93 9b 62 5b 5c 43 a5 ff a2 4d 64 66 6d 8f 8a     ...b[\C...Mdfm..
    1660:	80 82 74 82 9b 84 6f 7b 80 7c 80 81 80 80 80 80     ..t...o{.|......
    1670:	80 7f 7e 80 83 80 7d 79 83 92 74 65 98 93 63 7f     ..~...}y..te..c.
    1680:	8d 70 90 8a 5b 8b 95 69 96 80 3f b3 ca 21 4c e0     .p..[..i..?..!L.
    1690:	99 4a 5f 7f c9 99 0a 72 ff 73 1e 93 b2 80 6d 64     .J_....r.s....md
    16a0:	8b a7 6d 61 94 8c 72 7f 83 7d 81 80 7e 80 80 80     ..ma..r..}..~...
    16b0:	80 80 7f 80 81 7d 7b 79 84 93 80 74 96 8a 5d 6e     .....}{y...t..]n
    16c0:	79 6d 93 9c 80 9f 99 65 75 5d 32 9b c3 57 7f e7     ym.....eu]2..W..
    16d0:	9f 4c 49 5a 99 88 32 91 ff 8f 3f 86 91 68 60 65     .LIZ..2...?..h`e
    16e0:	8e aa 80 72 92 86 70 7a 7e 7d 81 81 80 80 80 80     ...r..pz~}......
    16f0:	80 80 7e 7f 81 80 80 7f 84 89 6e 66 96 9c 77 7f     ..~.......nf..w.
    1700:	79 5f 85 96 80 99 87 50 75 80 6c c9 c3 22 33 b1     y_.....Pu.l.."3.
    1710:	9f 7c 86 7f 99 71 1d 89 ff 88 2d 74 91 7f 83 7e     .|...q....-t...~
    1720:	8e 94 63 61 92 91 7b 80 7e 7b 80 81 80 80 80 80     ..ca..{.~{......
    1730:	80 80 7f 7f 7f 7e 7e 7e 85 8c 78 72 94 92 6e 71     .....~~~..xr..nq
    1740:	6e 60 8a a2 95 a7 8d 52 62 64 59 b1 bf 4d 61 c0     n`.....RbdY..Ma.
    1750:	a2 73 6c 62 7c 6b 39 9d ff 9a 45 70 7d 6d 74 79     .slb|k9...Ep}mty
    1760:	8f 9a 74 6f 91 8b 78 7b 7b 7b 81 82 80 80 80 80     ..to..x{{{......
    1770:	80 80 7e 7f 81 81 81 7b 7e 87 77 75 9c 8c 5b 73     ..~....{~.wu..[s
    1780:	8f 89 9a 7c 49 7b a2 8e 9b 67 2d a0 d6 5a 59 a6     ...|I{...g-..ZY.
    1790:	74 5d 8b 9a ab 6f 13 85 ff 84 25 73 9e 90 86 6e     t]...o....%s...n
    17a0:	7a 8f 71 73 98 87 6f 7b 83 81 82 7f 7e 7f 80 80     z.qs..o{....~...
    17b0:	80 80 7f 7f 80 7f 7e 7b 80 8a 80 7e 99 86 58 67     ......~{...~..Xg
    17c0:	80 82 9b 8d 6a 8f a3 83 80 50 26 91 ce 7a 7f b7     ....j....P&..z..
    17d0:	80 5b 70 77 8b 6a 31 99 ff 97 3e 6f 87 7a 77 6d     .[pw.j1...>o.zwm
    17e0:	80 96 80 7e 95 84 6d 78 7f 80 82 80 7f 80 80 80     ...~..mx........
    17f0:	80 80 7e 7f 80 81 83 80 80 82 71 72 99 94 6c 75     ..~.......qr..lu
    1800:	80 77 8f 88 6a 89 93 73 80 6c 55 b5 ce 50 42 8c     .w..j..s.lU..PB.
    1810:	80 81 a2 95 8b 57 20 93 ff 92 30 61 87 8d 93 80     .....W ...0a....
    1820:	80 85 69 70 95 8c 77 7c 7f 7e 81 80 7f 80 80 80     ..ip..w|.~......
    1830:	80 80 7f 7f 7f 7f 80 7f 81 85 7a 7a 97 8e 67 6b     ..........zz..gk
    1840:	75 74 91 94 80 97 96 6e 6d 58 48 a5 c8 6c 66 9f     ut.....nmXH..lf.
    1850:	87 79 87 78 75 57 37 a2 ff 9f 43 60 78 7b 84 7c     .y.xuW7...C`x{.|
    1860:	83 8c 76 79 94 89 74 79 7d 7e 81 81 80 80 80 80     ..vy..ty}~......
    1870:	80 7f 7e 82 81 79 82 86 7a 7e 7f 82 8c 6b 74 b2     ..~..y..z~...kt.
    1880:	6c 41 c8 9e 13 a3 dd 23 5e e1 66 4a a5 87 7f 78     lA.....#^.fJ...x
    1890:	59 b8 9b 16 a4 e6 15 57 ff 5a 27 ce 99 3d 8f 9c     Y......W.Z'..=..
    18a0:	6e 7c 80 82 8a 73 7a 90 7b 76 87 81 7c 80 80 80     n|...sz.{v..|...
    18b0:	80 80 7f 81 7f 78 7e 82 7e 86 8b 8c 8d 6c 67 89     .....x~.~....lg.
    18c0:	5d 4d ba b0 5b b6 cb 35 45 93 48 4d a8 ad b3 a4     ]M..[..5E.HM....
    18d0:	76 95 69 07 70 b5 47 88 ff 88 50 a9 75 34 73 8b     v.i.p.G...P.u4s.
    18e0:	7b 8f 92 8e 8b 73 74 83 78 78 85 82 7e 80 80 80     {....st.xx..~...
    18f0:	80 7f 7f 80 7f 7b 85 8a 7e 79 74 79 8d 84 89 a1     .....{..~yty....
    1900:	5d 3a a6 a8 5b ae b2 19 45 c1 95 8a a8 67 4c 5c     ]:..[...E....gL\
    1910:	76 d6 bb 39 70 97 2a 7e ff 7f 38 91 75 53 a1 ac     v..9p.*~..8.uS..
    1920:	7b 71 6d 77 8b 82 84 8a 78 75 83 82 7e 80 80 80     {qmw....xu..~...
    1930:	80 80 7f 80 7e 7a 81 86 80 80 7f 83 8d 7e 7a 87     ....~z.......~z.
    1940:	56 45 a4 b2 80 b9 ae 29 39 8e 73 7c a9 8c 7f 84     VE.....)9.s|....
    1950:	84 b4 8d 25 57 86 4a 9a ff 97 53 84 63 47 87 9b     ...%W.J...S.cG..
    1960:	82 81 80 83 8b 7f 7d 82 76 76 83 83 80 80 80 80     ......}.vv......
    1970:	80 7f 7e 80 80 7d 85 85 75 76 7f 8d 95 6f 64 90     ..~..}..uv...od.
    1980:	7a 72 c2 85 13 86 d6 6c 77 a0 41 54 c1 b1 7f 4d     zr.....lw.AT...M
    1990:	3c ad c2 5c 89 95 1d 79 ff 79 2e 90 86 69 a5 97     <..\...y.y...i..
    19a0:	60 6b 80 90 92 75 73 85 7e 7d 86 80 7c 80 80 80     `k...us.~}..|...
    19b0:	80 80 7f 80 7f 7b 81 82 7a 7e 88 92 93 6f 5e 7a     .....{..z~...o^z
    19c0:	6c 6f b9 98 49 9b ca 67 5e 75 34 54 bc c4 a6 79     lo..I..g^u4T...y
    19d0:	59 96 93 40 69 85 41 95 ff 93 4b 83 70 57 8a 8b     Y..@i.A...K.pW..
    19e0:	6e 7d 8e 95 90 75 70 7e 7b 7d 85 81 7e 80 80 80     n}...up~{}..~...
    19f0:	80 80 7f 7f 7f 7e 87 88 7a 74 77 84 93 80 77 8c     .....~..ztw...w.
    1a00:	6c 61 aa 92 49 95 b7 53 5e 98 6d 82 bc 8f 59 43     la..I..S^.m...YC
    1a10:	59 c6 d0 65 69 6e 2b 8e ff 8d 39 72 70 6f ad a4     Y..ein+...9rpo..
    1a20:	6e 66 71 84 90 80 7c 84 7b 7b 84 81 7e 80 80 80     nfq...|.{{..~...
    1a30:	80 80 7f 7f 7e 7c 83 85 7c 7b 7f 8a 92 7d 6f 7b     ....~|..|{...}o{
    1a40:	63 62 a8 9f 6a a3 b3 54 4f 77 5a 78 b9 a4 7f 68     cb..j..TOwZx...h
    1a50:	6a ae a7 4c 56 68 45 a1 ff 9e 4e 6e 63 5f 96 98     j..LVhE...Nnc_..
    1a60:	76 76 80 8b 90 7e 78 7e 79 7b 83 81 7f 80 80 80     vv...~x~y{......
    1a70:	80 7f 7e 81 82 7d 7e 7f 7e 88 7f 73 83 82 84 90     ..~..}~.~..s....
    1a80:	5d 63 ce 8f 13 91 e5 55 45 a0 8a 87 89 52 7f ad     ]c.....UE....R..
    1a90:	76 78 74 5c bf af 0d 6b ff 6d 20 a3 ac 69 79 7b     vxt\...k.m ..iy{
    1aa0:	7b 92 80 71 82 81 82 85 78 7b 87 80 7c 80 80 80     {..q....x{..|...
    1ab0:	80 80 7f 80 80 7b 7c 7d 80 8c 88 7f 86 7d 76 7a     .....{|}.....}vz
    1ac0:	56 63 c1 a0 49 a4 d5 56 39 75 6b 7a 92 7c a6 c1     Vc..I..V9ukz.|..
    1ad0:	84 6e 58 40 92 98 34 8b ff 8a 41 92 8c 57 69 76     .nX@..4...A..Wiv
    1ae0:	82 9b 8e 7e 85 7e 7b 7e 76 7b 86 81 7e 80 80 80     ...~.~{~v{..~...
    1af0:	80 80 7e 80 80 7e 81 83 80 82 77 70 86 8f 90 8c     ..~..~....wp....
    1b00:	56 56 b3 9a 49 9e c2 41 39 98 a4 a8 92 47 59 8b     VV..I..A9....GY.
    1b10:	84 9e 96 65 92 81 1f 84 ff 84 2f 80 8c 6f 8c 8f     ...e....../..o..
    1b20:	82 84 71 6d 85 89 87 84 76 79 85 81 7e 80 80 80     ..qm....vy..~...
    1b30:	80 80 7f 7f 7f 7c 7f 81 81 86 7f 7a 87 88 82 7b     .....|.....z...{
    1b40:	51 59 ae a5 6a aa bc 46 31 77 86 97 98 6b 7f a2     QY..j..F1w...k..
    1b50:	8d 8e 79 4c 76 78 3b 99 ff 97 46 7a 79 5f 7c 87     ..yLvx;...Fzy_|.
    1b60:	86 8e 80 79 86 85 81 7e 75 79 84 82 7f 80 80 80     ...y...~uy......
    1b70:	80 80 7e 80 81 80 82 80 7a 80 7f 80 8c 7f 74 80     ..~.....z.....t.
    1b80:	6c 80 c8 80 13 7f dd 7f 5e 80 66 7f a5 80 7f 7f     l.......^.f.....
    1b90:	59 7f 9b 80 a4 7f 15 7f ff 80 27 7f 99 7f 8f 80     Y.........'.....
    1ba0:	6e 7f 80 7f 8a 80 7a 7f 7b 80 87 80 7c 80 80 80     n.....z.{...|...
    1bb0:	80 80 7f 7f 80 7e 7f 7e 7c 84 87 86 8c 7c 6c 71     .....~.~|....|lq
    1bc0:	63 7a bf 90 3e 92 d2 78 4f 64 54 76 a7 98 9e 98     cz..>..xOdTv....
    1bd0:	6a 76 7d 62 85 77 33 95 ff 93 40 79 83 6d 7e 7b     jv}b.w3...@y.m~{
    1be0:	76 8a 8b 87 8a 7d 77 7b 79 7f 86 80 7d 80 80 80     v....}w{y...}...
    1bf0:	80 80 7e 7f 80 80 84 83 7c 7c 78 7b 8c 8a 81 80     ..~.....||x{....
    1c00:	63 6f b4 8b 3e 8d c3 67 4f 80 82 9b a7 6e 61 6d     co..>..gO....nam
    1c10:	6a 9d ae 80 85 64 22 8f ff 8e 31 6b 83 7f 9a 8f     j....d"...1k....
    1c20:	76 78 74 7a 8a 86 80 7f 79 7d 85 80 7d 80 80 80     vxtz....y}..}...
    1c30:	80 80 7f 7f 7f 7e 81 81 7e 81 7f 81 8d 86 78 74     .....~..~.....xt
    1c40:	5d 6d b0 97 5b 9a be 65 45 68 6e 8f a8 85 7f 85     ]m..[..eEhn.....
    1c50:	76 90 92 67 70 62 38 9f ff 9c 44 69 75 70 8a 88     v..gpb8...Diup..
    1c60:	7b 82 80 81 8b 83 7c 7c 78 7d 84 81 7e 80 80 80     {.....||x}..~...
    1c70:	80 7f 7e 81 83 7b 7d 84 83 7f 74 81 98 72 63 a1     ..~..{}...t..rc.
    1c80:	8d 56 90 94 5b 97 95 42 96 c1 3f 5c ca 84 4c 7b     .V..[..B..?\..L{
    1c90:	99 a5 5f 39 c9 c4 0a 64 ff 67 1e b4 b2 53 6d 93     .._9...d.g...Sm.
    1ca0:	8b 7d 6d 81 94 77 72 8a 83 79 81 81 7e 80 80 80     .}m..wr..y..~...
    1cb0:	80 80 7f 80 81 7a 7b 81 84 85 7f 89 96 71 5d 87     .....z{......q].
    1cc0:	79 5a 93 a4 80 a9 99 47 75 8e 32 59 c3 a2 7f 9b     yZ.....Gu.2Y....
    1cd0:	9f 90 49 25 99 a8 32 86 ff 86 3f 9e 91 47 60 88     ..I%..2...?..G`.
    1ce0:	8e 8b 80 8b 92 76 70 82 7e 7a 81 82 80 80 80 80     .....vp.~z......
    1cf0:	80 7f 7e 80 81 7c 80 87 84 7b 6e 7a 96 83 77 99     ..~..|...{nz..w.
    1d00:	79 4c 85 9e 80 a2 87 33 75 b0 6c 87 c3 6d 33 65     yL.....3u.l..m3e
    1d10:	9f c0 86 4b 99 91 1d 7f ff 7f 2d 8d 91 5e 83 a1     ...K......-..^..
    1d20:	8e 75 63 79 92 81 7b 88 7e 77 80 81 80 80 80 80     .ucy..{.~w......
    1d30:	80 80 7f 80 7f 7b 7e 84 85 80 78 82 94 7e 6e 85     .....{~...x..~n.
    1d40:	6e 51 8a a8 95 ae 8d 3a 62 8b 59 7d bf 89 61 83     nQ.....:b.Y}..a.
    1d50:	a2 aa 6c 37 7c 85 39 94 ff 93 45 83 7d 52 74 95     ..l7|.9...E.}Rt.
    1d60:	8f 81 74 83 91 7f 78 81 7b 78 81 82 80 80 80 80     ..t...x.{x......
    1d70:	80 7f 7e 80 81 7e 81 84 7e 78 77 8a 9c 73 5b 8c     ..~..~..~xw..s[.
    1d80:	8f 76 9a 83 49 84 a2 71 9b 98 2d 5f d6 a5 59 59     .v..I..q..-_..YY
    1d90:	74 a2 8b 65 ab 90 13 7a ff 7b 25 8c 9e 6f 86 91     t..e...z.{%..o..
    1da0:	7a 70 71 8c 98 78 6f 84 83 7e 82 80 7e 80 80 80     zpq..xo..~..~...
    1db0:	80 80 7f 80 80 7c 7e 82 80 7e 7f 8f 99 72 58 7b     .....|~..~...rX{
    1dc0:	7f 72 9b 93 6a 96 a3 6c 80 77 26 5c ce b6 7f 7a     .r..j..l.w&\...z
    1dd0:	80 91 70 4c 8b 84 31 91 ff 8f 3e 83 87 5f 77 89     ..pL..1...>.._w.
    1de0:	80 7d 80 91 95 77 6d 7e 80 7d 82 81 7f 80 80 80     .}...wm~.}......
    1df0:	80 80 7e 7f 80 7e 83 86 80 76 71 83 99 80 6c 8a     ..~..~...vq...l.
    1e00:	7f 67 8f 8f 6a 91 93 5c 80 93 55 81 ce 8c 42 4f     .g..j..\..U...BO
    1e10:	80 b8 a2 6a 8b 71 20 8b ff 8a 30 75 87 72 93 9d     ...j.q ...0u.r..
    1e20:	80 6b 69 83 95 80 77 83 80 7c 81 80 7f 80 80 80     .ki...w..|......
    1e30:	80 80 7f 7f 7f 7d 80 84 81 7c 7a 88 97 7d 67 7c     .....}...|z..}g|
    1e40:	75 67 91 9a 80 9d 96 5b 6d 79 48 79 c8 9e 66 6c     ug.....[myHy..fl
    1e50:	87 a7 87 55 75 6c 37 9b ff 99 43 71 78 65 84 94     ...Uul7...Cqxe..
    1e60:	83 77 76 89 94 7e 74 7e 7d 7c 81 81 80 80 80 80     .wv..~t~}|......
    1e70:	80 7f 7e 80 83 7e 7b 7f 84 86 77 76 8e 82 73 8c     ..~..~{...wv..s.
    1e80:	79 6a a3 8b 49 8d ad 60 75 98 64 85 ac 5e 59 a2     yj..I..`u.d..^Y.
    1e90:	9f 7a 51 65 d4 a3 07 70 ff 72 1b 9a ba 6f 65 7c     .zQe...p.r...oe|
    1ea0:	8e 8e 71 75 8c 81 7a 84 7e 7c 83 80 7e 80 80 80     ..qu..z.~|..~...
    1eb0:	80 80 7f 80 81 7c 7a 7e 85 89 7f 7f 8e 7e 6b 7b     .....|z~.....~k{
    1ec0:	6e 69 a1 99 6a 9d ab 5e 62 77 52 7b ac 7d 7f b4     ni..j..^bwR{.}..
    1ed0:	a2 71 42 4c ab 93 27 89 ff 88 36 8e 9e 5f 5c 78     .qBL..'...6.._\x
    1ee0:	8f 95 80 7f 8c 7e 76 7e 7b 7c 83 81 7f 80 80 80     .....~v~{|......
    1ef0:	80 80 7e 80 81 7e 7e 82 85 81 71 73 8e 8c 80 8a     ..~..~~...qs....
    1f00:	6e 5e 96 95 6a 98 9c 4e 62 93 80 a0 ac 53 42 89     n^..j..Nb....SB.
    1f10:	a2 98 73 6a ab 81 16 83 ff 83 28 80 9e 72 78 8c     ..sj......(..rx.
    1f20:	8f 83 69 71 8c 87 80 83 7b 7a 82 81 7f 80 80 80     ..iq....{z......
    1f30:	80 80 7f 7f 80 7d 7d 81 85 85 7a 7b 8e 87 77 7c     .....}}...z{..w|
    1f40:	66 5f 97 9f 80 a3 9e 50 55 79 6d 93 ad 6f 66 9c     f_.....PUym..of.
    1f50:	a4 8c 61 55 90 79 2f 94 ff 93 3c 7b 8b 65 6e 86     ..aU.y/...<{.en.
    1f60:	90 8b 76 7a 8c 84 7c 7e 7a 7a 82 81 80 80 80 80     ..vz..|~zz......
    1f70:	80 80 7e 80 82 80 7f 80 7f 80 78 7f 93 7f 6a 7f     ..~.......x...j.
    1f80:	7f 80 a7 80 3e 7f b2 7f 80 80 4e 7f bb 80 61 7f     ....>.....N...a.
    1f90:	80 7f 77 80 ba 7f 0f 7f ff 80 21 7f a8 7f 7b 80     ..w.......!...{.
    1fa0:	80 80 74 7f 90 80 75 7f 7f 80 83 80 7d 80 80 80     ..t...u.....}...
    1fb0:	80 80 7f 7f 81 7e 7d 7f 81 83 7f 85 92 7d 65 74     .....~}......}et
    1fc0:	75 7b a5 8d 5b 8f b0 79 6d 68 43 78 b9 94 7f 94     u{..[..ymhCx....
    1fd0:	87 78 64 67 9d 78 29 92 ff 90 37 7a 94 70 70 7b     .xdg.x)...7z.pp{
    1fe0:	83 88 80 86 90 7e 73 7c 7d 7f 83 80 7e 80 80 80     .....~s|}...~...
    1ff0:	80 80 7e 7f 81 80 81 82 81 7d 74 7b 92 88 76 7f     ..~......}t{..v.
    2000:	75 72 9b 89 5b 8b a3 6b 6d 80 6a 97 b9 71 4c 70     ur..[..km.j..qLp
    2010:	87 98 8d 80 9d 69 1a 8d ff 8b 2b 6e 94 7f 87 8c     .....i....+n....
    2020:	83 79 6d 7b 90 85 7b 7f 7d 7d 82 80 7e 80 80 80     .ym{..{.}}..~...
    2030:	80 80 7f 7f 80 7e 7f 81 82 80 7a 81 92 85 70 75     .....~....z...pu
    2040:	6d 70 9b 94 70 97 a4 68 61 6c 5c 8d b7 84 6a 84     mp..p..hal\...j.
    2050:	8d 8e 7a 6a 87 66 2f 9a ff 98 3c 6c 85 72 7c 87     ..zj.f/...<l.r|.
    2060:	86 82 77 81 8f 83 78 7c 7b 7d 82 81 7f 80 80 80     ..w...x|{}......
    2070:	80 7f 80 82 7a 85 80 75 93 6e 7f 98 57 a1 7f 56     ....z..u.n..W..V
    2080:	c1 4d 7f bb 25 c3 80 34 ee 2e 7f d6 03 d9 80 25     .M..%..4.......%
    2090:	ff 25 7f d7 06 d3 80 31 ea 38 80 bf 2b b7 80 51     .%.....1.8..+..Q
    20a0:	bb 5a 7f 9c 5d 94 80 72 8e 78 7f 83 7d 80 80 80     .Z..]..r.x..}...
    20b0:	80 80 80 80 7a 7e 7a 77 8e 81 91 9e 6f 8a 67 45     ....z~zw....o.gE
    20c0:	87 55 8e ca 80 d4 92 41 8c 0d 48 9c 4e ef ca 87     .U.....A..H.N...
    20d0:	e1 34 44 6a 00 9b 94 86 fb 86 91 94 27 72 5e 59     .4Dj........'r^Y
    20e0:	ad 83 9b a3 72 86 74 6c 81 79 81 84 80 81 80 80     ....r.tl.y......
    20f0:	80 7f 7f 7f 7a 83 85 82 8e 6d 6e 82 6f ad 98 67     ....z....mn.o..g
    2100:	87 3a 71 bf 80 c8 6d 19 8c 50 b7 f5 4e 88 35 1f     .:q...m..P..N.5.
    2110:	e1 92 bb b3 00 6f 6b 78 fb 78 6e 73 27 a0 a1 89     .....okx.xns'...
    2120:	ad 58 64 82 72 9c 8b 78 81 75 7e 83 80 80 7f 80     .Xd.r..x.u~.....
    2130:	80 80 80 7f 7a 7f 80 7f 8c 7b 7f 8c 79 99 80 57     ....z....{..y..W
    2140:	6f 47 7f c7 a4 d1 7f 2c 64 31 7f c1 6c ae 80 67     oG.....,d1..l..g
    2150:	d3 7c 7f 71 00 65 80 9e ff 9c 80 6b 27 76 80 7e     .|.q.e.....k'v.~
    2160:	a6 75 7f 8f 7a 8f 80 72 7c 77 7f 84 81 81 80 80     .u..z..r|w......
    2170:	80 7f 7f 7f 7c 86 86 7b 82 68 7f a1 7b 8f 61 4d     ....|..{.h..{.aM
    2180:	b3 8c 9b 8c 13 8e a3 91 d7 1e 3c a8 71 f9 80 04     ..........<.q...
    2190:	8e 55 c8 e9 20 6b 57 6f ff 70 5e 70 3d c2 a9 6a     .U.. kWo.p^p=..j
    21a0:	86 4d 7f a7 7c 89 72 6f 8b 81 82 80 7c 80 80 80     .M..|.ro....|...
    21b0:	80 80 7f 7f 7b 81 80 7a 83 78 8b a1 81 84 5a 46     ....{..z.x....ZF
    21c0:	8d 7f 9c a3 5b a8 a4 7e 96 10 2c 8b 85 f9 b3 57     ....[..~..,....W
    21d0:	99 54 87 94 18 63 73 98 ff 96 75 6a 38 8d 84 69     .T...cs...uj8..i
    21e0:	8b 6f 92 a7 81 82 6e 6d 83 7f 82 82 7e 80 80 80     .o....nm....~...
    21f0:	80 80 7f 7e 7b 84 87 82 83 6a 74 8e 81 9c 7c 5e     ...~{....jt...|^
    2200:	8d 6c 88 9c 5b a0 8b 63 96 3e 79 c9 85 b3 4c 0f     .l..[..c.>y...L.
    2210:	99 94 d8 c6 18 45 56 8e ff 8d 5d 53 38 ac b2 8a     .....EV...]S8...
    2220:	8b 51 6d 90 81 91 7e 75 83 7d 80 81 7e 80 80 80     .Qm...~u.}..~...
    2230:	80 80 7f 7e 7b 80 83 80 84 76 7f 93 85 90 70 54     ...~{....v....pT
    2240:	79 6a 8d a9 80 af 91 60 75 2c 5e ab 8f c4 80 4b     yj.....`u,^....K
    2250:	9f 83 a4 8f 14 49 6b a6 ff a2 6f 56 35 89 94 81     .....Ik...oV5...
    2260:	8e 6a 7f 96 84 8a 79 71 7e 7c 81 82 80 80 80 80     .j....yq~|......
    2270:	80 7f 7f 80 7f 86 7c 71 8f 84 7f 7a 60 ac 92 4d     ......|q...z`..M
    2280:	87 75 ac 9b 13 9f ba 6f 8c 1e a9 f5 1e 6a 7f 95     .u.....o.....j..
    2290:	e4 05 53 e9 72 92 3e 5b ff 5e 49 8d 76 c2 66 40     ..S.r.>[.^I.v.f@
    22a0:	ae 88 7f 79 64 9c 88 6f 81 7e 84 81 7c 80 80 80     ...yd..o.~..|...
    22b0:	80 80 7f 7f 7d 81 79 74 8c 8a 8b 87 6f 98 7b 46     ....}.yt....o.{F
    22c0:	6f 6f a7 ae 5b b4 b3 68 64 10 75 be 4e 9a b3 b7     oo..[..hd.u.N...
    22d0:	d3 1e 39 94 4f 7d 62 8b ff 8a 67 7d 5e 8d 57 4d     ..9.O}b...g}^.WM
    22e0:	a6 97 92 88 72 8f 7d 6d 7c 7d 83 82 7e 80 80 80     ....r.}m|}..~...
    22f0:	80 80 7f 7f 7d 84 80 7c 8c 7d 74 73 6f af 9d 5e     ....}..|.}tso..^
    2300:	6f 5d 94 a6 5b ab 9a 4c 64 3e c2 fc 4e 54 4c 70     o]..[..Ld>..NTLp
    2310:	d3 5e 8b c6 4f 5e 45 81 ff 81 4f 66 5e ac 86 6e     .^..O^E...Of^..n
    2320:	a6 79 6d 71 72 9d 8d 75 7c 7a 82 82 7e 80 80 80     .ymqr..u|z..~...
    2330:	80 80 7f 7f 7d 80 7e 7b 8b 83 7f 7f 77 9f 89 54     ....}.~{....w..T
    2340:	63 5f 96 b1 80 b8 9d 4f 50 2c 94 d2 66 7d 7f 93     c_.....OP,..f}..
    2350:	ca 5b 69 8f 3d 5c 5f 9c ff 99 64 64 52 89 73 6d     .[i.=\_...ddR.sm
    2360:	a2 87 7f 7f 78 93 84 71 79 7a 82 82 80 80 80 80     ....x..qyz......
    2370:	80 7f 7f 7f 7e 86 81 77 83 7a 7f 88 77 9a 78 4d     ....~..w.z..w.xM
    2380:	8d 95 b0 83 13 83 be 9f 96 1e 6e c6 67 9e 7f 60     ..........n.g..`
    2390:	99 36 92 e9 67 5d 38 7b ff 7c 44 65 6f c2 8a 5a     .6..g]8{.|Deo..Z
    23a0:	8b 73 7f 89 79 90 7c 6f 83 83 84 80 7c 80 80 80     .s..y.|o....|...
    23b0:	80 80 7f 7f 7e 82 7e 78 84 81 88 8e 7d 8f 6d 48     ....~.~x....}.mH
    23c0:	79 89 ab 96 49 9a b8 8d 75 13 56 a9 78 b5 a6 87     y...I...u.V.x...
    23d0:	9f 3c 6f a9 50 5a 55 97 ff 95 5c 63 5e 9a 76 5d     .<o.PZU...\c^.v]
    23e0:	8e 83 8e 91 7e 89 77 6d 7e 81 84 81 7e 80 80 80     ....~.wm~...~...
    23f0:	80 80 7f 7e 7e 84 83 7d 84 77 77 80 7d a1 87 5a     ...~~..}.ww.}..Z
    2400:	79 7b 9c 91 49 93 a5 79 75 36 8f d7 78 80 59 51     y{..I..yu6..x.YQ
    2410:	9f 6d ac cf 50 43 40 90 ff 8e 4a 52 5e b1 99 76     .m..PC@...JR^..v
    2420:	8e 6c 71 80 7e 95 83 73 7e 7f 82 81 7e 80 80 80     .lq.~..s~...~...
    2430:	80 80 7f 7e 7d 82 80 7d 85 7d 7f 86 81 97 7b 53     ...~}..}.}....{S
    2440:	6e 76 9c 9e 6a a2 a5 72 62 29 75 bd 83 99 7f 74     nv..j..rb)u....t
    2450:	a2 67 8b a1 41 47 55 a2 ff 9f 5c 54 54 95 86 73     .g..AGU...\TT..s
    2460:	8f 7b 7f 88 80 8e 7d 71 7b 7e 82 81 7f 80 80 80     .{....}q{~......
    2470:	80 7f 7f 81 80 82 7a 7a 93 77 71 8c 80 90 65 6b     ......zz.wq...ek
    2480:	c1 66 58 9d 80 a1 4d 5a ee 57 44 ab 80 ac 40 52     .fX...MZ.WD...@R
    2490:	ff 52 40 ab 80 a9 46 58 ea 5c 4f 9f 80 9b 5b 68     .R@...FX.\O...[h
    24a0:	bb 6d 68 8e 80 8a 73 79 8e 7c 7c 81 80 80 7f 80     .mh...sy.||.....
    24b0:	80 80 7f 80 7e 7f 77 79 91 80 7f 95 85 87 59 57     ....~.wy......YW
    24c0:	9f 62 6a b3 a4 ba 63 54 b4 31 29 93 8f cc 80 85     .bj...cT.1).....
    24d0:	f6 4c 24 71 58 92 60 84 ff 84 65 8e 64 76 4b 65     .L$qX.`...e.dvKe
    24e0:	b6 82 7f 98 84 84 6e 72 87 7b 7d 83 81 80 7f 80     ......nr.{}.....
    24f0:	80 7f 7f 7f 7e 82 7f 81 91 73 68 81 85 9f 7b 6f     ....~....sh...{o
    2500:	9f 50 56 ab a4 b1 4a 39 b4 5f 76 d0 8f 86 19 3d     .PV...J9._v....=
    2510:	f6 8c 76 a3 58 74 43 7a ff 7b 4d 77 64 96 7a 86     ..v.XtCz.{Mwd.z.
    2520:	b6 64 5a 81 84 93 7e 7a 87 78 7b 82 81 80 7f 80     .dZ...~z.x{.....
    2530:	80 80 7f 7f 7d 7f 7c 7f 8f 7c 77 89 87 92 70 61     ....}.|..|w...pa
    2540:	87 55 68 b5 b6 bc 61 41 8c 44 5c b1 97 a3 59 6d     .Uh...aA.D\...Ym
    2550:	e4 7d 5a 75 44 6c 5d 97 ff 95 63 70 56 79 6a 7e     .}ZuDl]...cpVyj~
    2560:	ae 78 71 8b 86 8b 78 76 81 79 7d 83 81 80 7f 80     .xq...xv.y}.....
    2570:	80 7f 7f 7f 7f 84 7f 7c 89 70 74 96 8d 8a 56 5e     .......|.pt...V^
    2580:	bc 88 73 88 5b 89 6f 8b e6 3e 23 9a a8 d0 4c 2d     ..s.[.o..>#...L-
    2590:	bd 63 7d c6 70 72 36 74 ff 75 42 75 75 ac 7e 71     .c}.pr6t.uBuu.~q
    25a0:	9c 5e 6d 9a 8b 86 6d 75 8d 81 7e 80 7e 80 7f 80     .^m...mu..~.~...
    25b0:	80 80 7f 7f 7e 80 7d 7c 88 7a 7f 99 8d 83 54 54     ....~.}|.z....TT
    25c0:	9d 7f 7d 9a 80 9e 7c 7f b2 2c 1d 88 a9 db 80 61     ..}...|..,.....a
    25d0:	b9 5f 5f 8f 57 6a 53 92 ff 90 5b 6f 63 89 6d 6f     .__.WjS...[oc.mo
    25e0:	9a 73 7f 9d 8b 82 6b 71 86 7f 7f 81 80 80 7f 80     .s....kq........
    25f0:	80 80 7f 7e 7e 83 82 81 88 70 6e 8a 8d 95 6d 66     ...~~....pn...mf
    2600:	9d 71 6f 95 80 98 6a 6a b2 4f 57 b6 a9 a6 33 2b     .qo...jj.OW...3+
    2610:	b9 8f 9c b4 57 54 3e 8b ff 8a 49 5e 63 a1 90 87     ....WT>...I^c...
    2620:	9a 5d 63 8c 8b 8d 77 77 86 7d 7e 81 80 80 7f 80     .]c...ww.}~.....
    2630:	80 80 7f 7e 7d 80 7f 80 88 78 78 8f 8d 8d 67 5d     ...~}....xx...g]
    2640:	8a 6f 78 a1 95 a6 75 66 92 3d 48 a2 aa b7 61 55     .ox...uf.=H...aU
    2650:	b7 82 7e 8c 47 54 54 9e ff 9b 5b 5e 58 87 7f 81     ..~.GTT...[^X...
    2660:	99 6e 74 91 8b 88 74 74 82 7d 7f 81 80 80 7f 80     .nt...tt.}......
    2670:	80 7f 7f 80 81 84 78 76 91 82 74 7c 7a 9d 77 5e     ......xv..t|z.w^
    2680:	9f 78 7e 92 5b 95 7e 75 b4 3e 6c ce 70 71 4c 8e     .x~.[.~u.>l.pqL.
    2690:	f6 2e 2f c6 a7 8c 25 67 ff 69 34 89 9b ac 52 55     ../...%g.i4...RU
    26a0:	b6 85 6d 7b 7b 92 7c 75 87 7e 7f 81 7e 80 7f 80     ..m{{.|u.~..~...
    26b0:	80 80 7f 7f 80 80 77 77 8f 87 7f 85 7f 92 6c 54     ......ww......lT
    26c0:	87 73 86 a2 80 a7 87 6e 8c 2c 54 af 80 94 7f a9     .s.....n.,T.....
    26d0:	e4 36 25 8f 80 7e 47 88 ff 87 50 7e 7f 89 4c 5a     .6%..~G...P~..LZ
    26e0:	ae 91 7f 86 80 8b 77 71 81 7e 80 82 80 80 80 80     ......wq.~......
    26f0:	80 80 7f 7f 80 83 7d 7d 8f 7d 6e 76 7f a3 86 66     ......}}.}nv...f
    2700:	87 65 77 9c 80 a0 75 59 8c 4f 8e dd 80 5f 33 74     .ew...uY.O..._3t
    2710:	e4 67 62 b4 80 67 31 81 ff 81 3e 6d 7f a1 6f 73     .gb..g1...>m..os
    2720:	ae 7b 63 75 7f 96 82 77 81 7b 7f 81 80 80 7f 80     .{cu...w.{......
    2730:	80 80 7f 7f 7f 80 7b 7c 8d 82 78 7f 83 99 7a 5d     ......{|..x...z]
    2740:	79 65 7f a7 95 ad 7e 59 74 3d 74 c1 89 7e 61 8f     ye....~Yt=t..~a.
    2750:	da 62 4f 8c 68 63 49 96 ff 94 52 6a 6f 87 64 70     .bO.hcI...Rjo.dp
    2760:	a9 86 74 7f 82 8f 7d 74 7e 7b 7f 82 80 80 7f 80     ..t...}t~{......
    2770:	80 7f 7f 7f 80 84 7d 79 88 7b 77 86 86 94 6a 5a     ......}y.{w...jZ
    2780:	9d 8f 8c 82 49 82 90 97 b2 36 4f b4 92 97 59 68     ....I....6O...Yh
    2790:	b9 48 67 cf 92 65 28 7c ff 7d 36 6c 8c b1 72 63     .Hg..e(|.}6l..rc
    27a0:	9a 76 71 87 85 8c 76 73 86 82 81 80 7e 80 80 80     .vq...vs....~...
    27b0:	80 80 7f 7f 7f 82 7c 79 88 81 7f 8b 87 8c 64 53     ......|y......dS
    27c0:	8a 87 8f 92 6a 94 94 8a 92 29 41 a1 98 ab 7f 86     ....j....)A.....
    27d0:	b7 4a 54 a1 76 62 42 93 ff 91 4c 69 79 95 66 64     .JT.vbB...Liy.fd
    27e0:	99 82 7f 8d 86 87 73 71 82 81 81 81 7f 80 80 80     ......sq........
    27f0:	80 80 7f 7e 7f 83 80 7e 88 79 71 80 87 9a 78 61     ...~...~.yq...xa
    2800:	8a 7c 84 8d 6a 8f 85 7a 92 45 70 c6 98 80 42 5b     .|..j..z.Ep...B[
    2810:	b7 70 85 bf 76 4f 31 8d ff 8b 3e 5b 79 a7 82 78     .p..vO1...>[y..x
    2820:	99 70 69 80 86 90 7c 76 82 7f 80 80 7f 80 80 80     .pi...|v........
    2830:	80 80 7f 7e 7e 81 7e 7d 88 7e 7a 85 89 93 71 5a     ...~~.~}.~z...qZ
    2840:	7e 78 88 99 80 9c 8a 74 7d 37 5f b2 9b 95 66 76     ~x.....t}7_...fv
    2850:	b6 6b 6f 9b 64 50 45 9c ff 9a 4f 5b 6d 91 76 75     .ko.dPE...O[m.vu
    2860:	99 7b 76 86 87 8c 79 73 7f 7e 80 81 80 80 80 80     .{v...ys.~......
    2870:	80 7f 7f 81 7f 80 7c 81 8e 67 7f a2 60 7a 92 7f     ......|..g..`z..
    2880:	87 4e ab ab 15 b0 b8 37 8c 80 a9 72 20 fe 80 00     .N.....7...r ...
    2890:	e2 8d 54 7f 72 d1 3f 47 fd 4c 4a bd 76 7f 67 87     ..T.r.?G.LJ.v.g.
    28a0:	ad 4b 7f a8 65 7c 88 7f 81 78 84 82 7c 80 80 80     .K..e|...x..|...
    28b0:	80 7f 7f 80 7d 7c 79 7f 8c 77 8b a2 6f 76 7b 68     ....}|y..w..ov{h
    28c0:	6f 55 a7 b8 5b c0 b3 41 64 51 75 67 4e fe b3 52     oU..[..AdQugN..R
    28d0:	d3 79 39 4e 4f a8 62 7d ff 7d 67 9e 5e 60 57 7c     .y9NO.b}.}g.^`W|
    28e0:	a6 6d 92 a8 72 7a 7d 78 7c 79 83 83 7e 80 80 80     .m..rz}x|y..~...
    28f0:	80 7f 7f 80 7d 80 80 86 8c 69 74 8f 6f 8e 9d 80     ....}....it.o...
    2900:	6f 43 94 b1 5b b7 9a 25 64 80 c2 a5 4e b7 4c 0a     oC..[..%d...N.L.
    2910:	d3 b9 8b 7f 4f 89 45 73 ff 74 4f 87 5e 7f 86 9d     ....O.Es.tO.^...
    2920:	a6 4f 6d 92 72 89 8d 7f 7c 76 82 82 7e 80 80 80     .Om.r...|v..~...
    2930:	80 80 7f 7f 7d 7d 7e 83 8b 75 7f 94 77 86 89 6e     ....}}~..u..w..n
    2940:	63 4b 96 b9 80 c1 9d 32 50 5d 94 90 66 c8 80 47     cK.....2P]..f..G
    2950:	ca 9f 69 5a 3d 7c 5f 91 ff 90 64 7d 52 68 73 90     ..iZ=|_...d}Rhs.
    2960:	a2 68 7f 97 78 84 84 7a 79 77 82 83 80 80 80 80     .h..x..zyw......
    2970:	80 7f 7f 80 7f 82 81 81 83 67 7f a2 78 79 78 6f     .........g..xyxo
    2980:	8c 7b ae 8d 17 8f bc 78 95 60 6f 6f 67 fe 80 00     .{.....x.`oog...
    2990:	98 90 91 a1 68 87 3b 6e fb 6f 46 86 6f 95 8a 88     ....h.;n.oF.o...
    29a0:	8b 4b 7f a8 79 7c 7c 7a 82 7f 84 80 7c 80 80 80     .K..y||z....|...
    29b0:	80 80 7f 7f 7e 7f 7e 80 84 73 88 a3 7d 76 6d 61     ....~.~..s..}vma
    29c0:	79 75 ab 9e 49 a3 b8 70 75 45 56 68 78 ff a6 3b     yu..I..puEVhx..;
    29d0:	9e 81 6f 75 50 7b 55 8d ff 8c 5c 7c 5e 79 76 80     ..ouP{U...\|^yv.
    29e0:	8e 63 8d a9 7e 7a 77 76 7e 7e 84 81 7e 80 80 80     .c..~zwv~~..~...
    29f0:	80 80 7f 7f 7e 81 83 85 84 68 77 94 7d 88 87 73     ....~....hw.}..s
    2a00:	79 67 9c 99 49 9c a5 5c 75 67 8f 96 78 cb 59 05     yg..I..\ug..x.Y.
    2a10:	9f b1 ac 9a 50 64 40 85 ff 85 4a 6a 5e 90 99 99     ....Pd@...Jj^...
    2a20:	8e 4d 71 98 7e 85 83 7b 7e 7c 82 81 7e 80 80 80     .Mq.~..{~|..~...
    2a30:	80 80 7f 7f 7d 7f 80 83 85 72 7f 97 81 83 7b 67     ....}....r....{g
    2a40:	6e 67 9c a4 6a a9 a5 5b 62 50 75 88 83 d5 80 37     ng..j..[bPu....7
    2a50:	a2 9e 8b 77 41 60 55 9a ff 98 5c 68 54 7a 86 8f     ...wA`U...\hTz..
    2a60:	8f 61 7f 9b 80 82 7d 78 7b 7c 82 82 7f 80 80 80     .a....}x{|......
    2a70:	80 7f 7f 80 81 82 7a 7b 8c 79 7f 89 65 8d 98 6f     ......z{.y..e..o
    2a80:	6f 6b bb 97 13 9b cd 61 64 5f b7 a2 2f a3 7f 5b     ok.....ad_../..[
    2a90:	d3 5b 44 a3 9e a1 28 60 ff 63 36 99 94 96 5e 6d     .[D...(`.c6...^m
    2aa0:	a6 70 7f 8b 69 88 8b 7a 7c 7c 85 81 7c 80 80 80     .p..i..z||..|...
    2ab0:	80 80 7f 80 7f 7f 79 7b 8b 80 88 8f 70 85 85 61     ......y{....p..a
    2ac0:	63 69 b4 a6 49 ab c3 5f 50 44 8d 8e 4f b9 a6 83     ci..I.._PD..O...
    2ad0:	ca 59 34 75 79 8e 48 83 ff 83 51 8a 7b 79 55 6b     .Y4uy.H...Q.{yUk
    2ae0:	a2 81 8e 92 72 83 82 76 79 7c 85 82 7e 80 80 80     ....r..vy|..~...
    2af0:	80 7f 7f 7f 7f 81 7e 81 8b 76 77 81 70 97 9f 73     ......~..vw.p..s
    2b00:	63 5c a5 a0 49 a5 b0 4a 50 67 c6 bc 4f 84 59 4e     c\..I..JPg..O.YN
    2b10:	ca 89 72 9a 79 77 33 7c ff 7c 40 79 7b 90 78 84     ..r.yw3|.|@y{.x.
    2b20:	a2 6b 71 81 72 8e 8e 7b 79 7a 83 81 7e 80 80 80     .kq.r..{yz..~...
    2b30:	80 80 7f 7f 7e 7f 7c 7f 8a 7d 7f 87 76 8f 8e 67     ....~.|..}..v..g
    2b40:	5c 5d a3 aa 6a b0 ae 4d 44 50 a1 a7 62 9c 7f 71     \]..j..MDP..b..q
    2b50:	c4 7e 5c 77 62 70 4b 92 ff 90 54 73 6b 7a 6b 7e     .~\wbpK...Tskzk~
    2b60:	9f 79 7f 89 77 89 86 78 77 7a 83 82 7f 80 80 80     .y..w..xwz......
    2b70:	80 7f 7f 7f 80 83 7f 7d 84 74 7f 90 76 87 83 66     .......}.t..v..f
    2b80:	79 86 ba 86 13 87 cb 88 75 4f 88 94 61 bc 7f 42     y.......uO..a..B
    2b90:	9f 6a 77 b4 8b 75 29 77 ff 78 38 78 87 a1 7b 75     .jw..u)w.x8x..{u
    2ba0:	8e 66 7f 93 77 84 81 77 7e 80 85 80 7c 80 80 80     .f..w..w~...|...
    2bb0:	80 80 7f 7f 7f 80 7d 7c 85 7b 87 94 7b 82 78 5d     ......}|.{..{.x]
    2bc0:	6e 7f b4 95 3e 98 c4 7f 62 3d 6f 87 71 c9 9e 67     n...>...b=o.q..g
    2bd0:	a2 65 60 8c 71 6f 43 8e ff 8d 4d 73 75 87 6e 72     .e`.qoC...Msu.nr
    2be0:	8f 75 8b 97 7b 81 7c 74 7b 7f 85 81 7d 80 80 80     .u..{.|t{...}...
    2bf0:	80 80 7f 7f 7f 82 81 81 85 73 78 88 7b 90 8d 6b     .........sx.{..k
    2c00:	6e 74 a9 91 3e 93 b5 6e 62 58 9d ab 71 9e 61 3c     nt..>..nbX..q.a<
    2c10:	a2 8c 91 aa 71 5c 32 88 ff 88 3f 65 75 9a 8a 86     ....q\2...?eu...
    2c20:	8f 64 74 89 7b 8a 85 79 7b 7e 84 81 7d 80 80 80     .dt.{..y{~..}...
    2c30:	80 80 7f 7f 7e 80 7f 80 85 79 7f 8c 7e 8b 82 63     ....~....y..~..c
    2c40:	66 71 a7 9b 5b 9f b2 6b 55 48 85 9d 7b ad 7f 5c     fq..[..kUH..{..\
    2c50:	a4 82 7a 8a 60 5b 46 99 ff 97 50 64 69 86 7c 81     ..z.`[F...Pdi.|.
    2c60:	90 71 7f 8e 7e 87 81 76 7a 7d 83 81 7e 80 80 80     .q..~..vz}..~...
    2c70:	80 7f 7f 81 81 80 78 81 91 6f 74 97 7a 7c 77 7f     ......x..ot.z|w.
    2c80:	9f 5e 7e 9d 5b a1 7e 4e b4 80 6c 77 70 d5 4c 29     .^~.[.~N..lwp.L)
    2c90:	f6 89 2f 7f a7 b7 25 59 ff 5c 34 aa 9b 7f 52 84     ../...%Y.\4...R.
    2ca0:	b6 5c 6d 9b 7b 7d 7c 7f 87 7a 7f 81 7e 80 7f 80     .\m.{}|..z..~...
    2cb0:	80 7f 7f 80 80 7d 77 7f 8f 79 7f 9a 80 79 6c 6e     .....}w..y...yln
    2cc0:	87 60 86 aa 80 b0 87 50 8c 5d 54 6d 80 de 80 5d     .`.....P.]Tm...]
    2cd0:	e4 7b 25 5a 80 9e 47 7e ff 7e 50 97 7f 68 4c 7d     .{%Z..G~.~P..hL}
    2ce0:	ae 71 7f 9e 7f 7b 77 7a 81 7b 80 82 80 80 80 80     .q...{wz.{......
    2cf0:	80 7f 7f 80 80 80 7d 85 8f 6f 6e 8b 7f 8a 86 7f     ......}..on.....
    2d00:	87 52 77 a4 80 a9 75 3c 8c 80 8e 9c 80 a9 33 28     .Rw...u<......3(
    2d10:	e4 ab 62 7f 80 87 31 76 ff 77 3e 85 7f 7f 6f 96     ..b...1v.w>...o.
    2d20:	ae 5b 63 8d 7f 86 82 7f 81 78 7f 82 80 80 7f 80     .[c......x......
    2d30:	80 80 7f 7f 7f 7e 7b 82 8d 77 78 90 83 85 7a 71     .....~{..wx...zq
    2d40:	79 56 7f ad 95 b4 7e 42 74 64 74 8d 89 ba 61 52     yV....~Btdt...aR
    2d50:	da 99 4f 62 68 7d 49 8e ff 8d 52 7d 6f 6d 64 8d     ..Obh}I...R}omd.
    2d60:	a9 6d 74 92 82 83 7d 7b 7e 79 7f 82 80 80 7f 80     .mt...}{~y......
    2d70:	80 7f 7f 80 80 81 7d 81 88 6d 77 9b 86 7b 6a 73     ......}..mw..{js
    2d80:	9d 7c 8c 8a 49 8b 90 7a b2 67 4f 73 92 e2 59 1c     .|..I..z.gOs..Y.
    2d90:	b9 8d 67 9a 92 86 28 72 ff 73 36 84 8c 90 72 86     ..g...(r.s6...r.
    2da0:	9a 56 71 9f 85 7d 76 7b 86 7f 81 80 7e 80 80 80     .Vq..}v{....~...
    2db0:	80 80 7f 7f 7f 7f 7c 80 88 75 7f 9c 87 78 64 67     ......|..u...xdg
    2dc0:	8a 77 8f 98 6a 9c 94 73 92 50 41 6c 98 e6 80 49     .w..j..s.PAl...I
    2dd0:	b7 80 54 77 76 7c 42 8a ff 89 4c 7d 79 7a 66 80     ..Twv|B...L}yzf.
    2de0:	99 69 7f a1 86 7b 73 78 82 7e 81 81 7f 80 80 80     .i...{sx.~......
    2df0:	80 80 7f 7f 7f 81 80 84 88 6d 71 90 87 86 78 75     .........mq...xu
    2e00:	8a 6c 84 94 6a 97 85 63 92 6c 70 91 98 bc 42 1e     .l..j..c.lp...B.
    2e10:	b7 a7 85 95 76 69 31 84 ff 84 3e 6f 79 8d 82 94     ....vi1...>oy...
    2e20:	99 57 69 93 86 84 7c 7c 82 7c 80 81 7f 80 80 80     .Wi...||.|......
    2e30:	80 80 7f 7f 7e 7f 7e 82 88 74 7a 93 89 82 71 6b     ....~.~..tz...qk
    2e40:	7e 6b 88 9e 80 a2 8a 61 7d 58 5f 87 9b c6 66 43     ~k.....a}X_...fC
    2e50:	b6 99 6f 78 64 66 45 95 ff 94 4f 6c 6d 7b 76 8c     ..oxdfE...Olm{v.
    2e60:	99 66 76 96 87 81 79 79 7f 7c 80 81 80 80 80 80     .fv...yy.|......
    2e70:	80 7f 7e 80 82 81 78 7c 8f 7a 77 87 78 89 82 73     ..~...x|.zw.x..s
    2e80:	87 70 95 91 49 94 9b 69 8c 67 86 99 68 9a 59 64     .p..I..i.g..h.Yd
    2e90:	e4 64 2d 9a bb 99 1b 68 ff 6a 2c 93 a9 90 50 72     .d-....h.j,...Pr
    2ea0:	ae 74 71 88 79 86 81 7b 81 7d 82 81 7e 80 80 80     .tq.y..{.}..~...
    2eb0:	80 80 7f 80 80 7f 78 7c 8d 80 7f 8c 7c 84 77 67     ......x|....|.wg
    2ec0:	79 6e 96 9e 6a a3 9d 65 74 50 6d 8b 76 ad 7f 83     yn..j..etPm.v...
    2ed0:	da 60 25 77 97 8b 38 82 ff 82 44 88 90 7a 4c 6f     .`%w..8...D..zLo
    2ee0:	a9 81 7f 8e 7d 82 7c 78 7e 7d 82 81 7f 80 80 80     ....}.|x~}......
    2ef0:	80 7f 7f 7f 80 81 7c 80 8d 78 71 80 7c 92 8c 75     ......|..xq.|..u
    2f00:	79 63 8b 9a 6a 9d 8e 55 74 6c 9c b0 76 83 42 58     yc..j..Utl..v.BX
    2f10:	da 87 56 95 97 79 27 7c ff 7d 35 7a 90 8d 68 83     ..V..y'|.}5z..h.
    2f20:	a9 6f 69 81 7d 8b 85 7c 7e 7b 81 81 7f 80 80 80     .oi.}..|~{......
    2f30:	80 80 7f 7f 80 7f 7b 7f 8c 7d 7a 86 7f 8c 81 6b     ......{..}z....k
    2f40:	6f 63 8e a3 80 a8 92 56 64 58 84 a0 80 97 66 73     oc.....VdX....fs
    2f50:	d3 7e 49 78 80 72 3d 8f ff 8e 48 75 7f 7b 60 7f     .~Ix.r=...Hu.{`.
    2f60:	a6 7a 76 87 7f 87 80 79 7c 7b 81 82 80 80 80 80     .zv....y|{......
    2f70:	80 7f 7e 7f 81 82 7c 7e 88 76 78 8d 81 86 76 6b     ..~...|~.vx...vk
    2f80:	8a 84 9c 85 3e 85 a4 87 92 58 69 90 85 b0 61 4e     ....>....Xi...aN
    2f90:	b7 6f 5a aa a6 77 1f 79 ff 79 2f 79 9a 9a 6a 77     .oZ..w.y.y/y..jw
    2fa0:	99 6b 74 8f 81 83 7b 79 82 80 82 80 7d 80 80 80     .kt...{y....}...
    2fb0:	80 80 7f 7f 80 80 7b 7d 88 7c 7f 90 84 82 6f 63     ......{}.|....oc
    2fc0:	7e 7f 9c 91 5b 94 a4 7f 7d 48 5a 85 8c bc 7f 6b     ~...[...}HZ....k
    2fd0:	b6 6a 4c 8a 8c 71 36 8c ff 8b 42 75 88 86 62 74     .jL..q6...Bu..bt
    2fe0:	99 77 7f 93 83 81 78 76 7f 7f 82 81 7e 80 80 80     .w....xv....~...
    2ff0:	80 80 7f 7f 80 82 7f 81 88 75 74 87 84 8e 80 6f     .........ut....o
    3000:	7e 76 92 8e 5b 90 98 71 7d 5f 80 a4 8c 99 4c 47     ~v..[..q}_....LG
    3010:	b6 8a 75 a3 8c 62 28 87 ff 86 36 69 88 96 7a 85     ..u..b(...6i..z.
    3020:	99 68 6d 88 83 88 80 7a 7f 7e 81 80 7e 80 80 80     .hm....z.~..~...
    3030:	80 80 7f 7f 7f 80 7d 80 88 7a 7a 8a 85 89 78 67     ......}..zz...xg
    3040:	75 73 94 97 70 9b 99 6e 6e 50 70 98 91 a7 6a 61     us..p..nnPp...ja
    3050:	b5 81 65 88 79 60 3a 95 ff 93 46 68 7b 85 70 81     ..e.y`:...Fh{.p.
    3060:	98 73 77 8c 84 86 7c 77 7d 7e 81 81 7f 80 80 80     .sw...|w}~......
    3070:	80 7f 7f 82 7c 80 86 78 82 82 7f 7c 7b 98 61 7f     ....|..x...|{.a.
    3080:	b3 36 9b ba 13 c3 a3 13 d7 80 3c bf 71 72 7f 8e     .6........<.qr..
    3090:	8e 3d c8 80 20 f8 57 32 ff 39 5e dc 3d 7f a9 5d     .=.. .W2.9^.=..]
    30a0:	86 85 80 7b 7c 8f 72 7f 8b 74 82 83 7c 80 80 80     ...{|.r..t..|...
    30b0:	80 7f 7f 81 7b 7c 80 78 83 89 8b 88 81 8a 5a 68     ....{|.x......Zh
    30c0:	8d 46 9c c2 5b cb a4 2a 96 51 2c 9b 85 9f b3 b2     .F..[..*.Q,.....
    30d0:	99 44 87 4e 18 c1 73 70 ff 71 75 b2 38 60 84 61     .D.N..sp.qu.8`.a
    30e0:	8b 95 92 8a 81 86 6e 78 83 77 82 83 7e 81 80 80     ......nx.w..~...
    30f0:	80 7f 7f 80 7b 80 87 80 83 7c 74 75 81 a1 7c 7f     ....{....|tu..|.
    3100:	8d 33 88 bb 5b c3 8b 0f 96 80 79 d8 85 58 4c 6b     .3..[.....y..XLk
    3110:	99 84 d8 80 18 a3 56 66 ff 68 5d 9a 38 7f b2 82     ......Vf.h].8...
    3120:	8b 77 6d 73 81 95 7e 7f 83 74 80 83 7e 80 80 80     .wms..~..t..~...
    3130:	80 80 7f 80 7b 7d 83 7f 84 82 7f 80 85 95 70 6e     ....{}........pn
    3140:	79 40 8d c0 80 c9 91 21 75 5d 5e b7 8f 81 7f 8f     y@.....!u]^.....
    3150:	9f 77 a4 5a 14 8f 6b 87 ff 87 6f 8b 35 68 94 7b     .w.Z..k...o.5h.{
    3160:	8e 86 80 80 84 8d 79 7a 7e 76 81 83 80 80 80 80     ......yz~v......
    3170:	80 7f 7f 80 7c 82 88 7b 7b 79 7f 89 8a 8d 57 6f     ....|..{{y....Wo
    3180:	aa 6b a4 97 13 9b af 61 c8 5f 25 a2 9e a3 7f 5b     .k.....a._%....[
    3190:	60 5b e0 a3 31 a1 49 60 ff 63 52 99 49 96 b6 6d     `[..1.I`.cR.I..m
    31a0:	71 70 7f 8b 88 88 6d 7a 89 7c 83 81 7c 80 80 80     qp....mz.|..|...
    31b0:	80 80 7f 80 7c 7f 83 7b 7e 80 88 8f 8b 85 54 61     ....|..{~.....Ta
    31c0:	8f 69 a2 a6 49 ab ad 5f 9b 44 1f 8e a2 b9 a6 83     .i..I.._.D......
    31d0:	74 59 a9 75 27 8e 62 83 ff 83 66 8a 42 79 97 6b     tY.u'.b...f.By.k
    31e0:	7a 81 8e 92 89 83 6c 76 83 7c 83 82 7e 80 80 80     z.....lv.|..~...
    31f0:	80 7f 7f 7f 7c 81 89 81 7e 76 77 81 8b 97 6e 73     ....|...~vw...ns
    3200:	8f 5c 94 a0 49 a5 9a 4a 9b 67 58 bc a2 84 59 4e     .\..I..J.gX...YN
    3210:	74 89 e6 9a 27 77 4c 7c ff 7c 55 79 42 90 ba 84     t...'wL|.|UyB...
    3220:	7a 6b 71 81 89 8e 78 7b 83 7a 82 81 7e 80 80 80     zkq...x{.z..~...
    3230:	80 80 7f 7f 7c 7f 85 7f 80 7d 7f 87 8c 8f 67 67     ....|....}....gg
    3240:	80 5d 96 aa 6a b0 9c 4d 80 50 49 a7 a4 9c 7f 71     .]..j..M.PI....q
    3250:	80 7e b9 77 21 70 5f 92 ff 90 64 73 3e 7a a0 7e     .~.w!p_...ds>z.~
    3260:	80 79 7f 89 8a 89 74 78 80 7a 82 82 7f 80 80 80     .y....tx.z......
    3270:	80 7f 7f 81 7e 82 81 75 83 8b 7f 6f 77 a0 78 6f     ....~..u...ow.xo
    3280:	8d 5c b0 a2 13 a6 be 4b 96 5f 6e d5 67 44 7f bc     .\.....K._n.gD..
    3290:	99 26 92 a3 67 bb 38 53 ff 57 44 ac 6f 96 8a 51     .&..g.8S.WD.o..Q
    32a0:	8b 98 80 6c 79 94 7c 7a 83 7a 84 82 7c 80 80 80     ...ly.|z.z..|...
    32b0:	80 7f 7f 80 7e 7f 7e 76 84 8e 88 7c 7d 94 6d 61     ....~.~v...|}.ma
    32c0:	79 5e ab ae 49 b4 b8 4e 75 44 56 b4 78 72 a6 cc     y^..I..NuDV.xr..
    32d0:	9f 30 6f 75 50 a1 55 79 ff 7a 5c 99 5e 79 76 57     .0ouP.Uy.z\.^yvW
    32e0:	8e 9f 8e 7b 7e 8c 77 76 7e 7a 84 82 7e 80 80 80     ...{~.wv~z..~...
    32f0:	80 7f 7f 80 7e 81 83 7c 84 84 77 6d 7d a5 87 73     ....~..|..wm}..s
    3300:	79 50 9c a8 49 ad a5 39 75 67 8f e3 78 3d 59 96     yP..I..9ug..x=Y.
    3310:	9f 61 ac 9a 50 8a 40 72 ff 73 4a 87 5e 90 99 70     .a..P.@r.sJ.^..p
    3320:	8e 89 71 6a 7e 97 83 7b 7e 78 82 82 7e 80 80 80     ..qj~..{~x..~...
    3330:	80 80 7f 7f 7d 7f 80 7b 85 88 7f 78 81 9a 7b 67     ....}..{...x..{g
    3340:	6e 54 9c b0 6a b7 a5 3f 62 50 75 c6 83 63 7f aa     nT..j..?bPu..c..
    3350:	a2 5d 8b 77 41 7f 55 8a ff 89 5c 7f 54 7a 86 6e     .].wA.U...\.Tz.n
    3360:	8f 91 80 76 80 90 7d 78 7b 79 82 82 7f 80 80 80     ...v..}x{y......
    3370:	80 7f 7f 80 7e 83 84 78 7e 82 7f 7d 83 96 6b 66     ....~..x~..}..kf
    3380:	8f 7a b2 8d 13 8f c0 77 9b 4f 51 ba 8b 75 7f 8a     .z.....w.OQ..u..
    3390:	74 42 b1 b4 62 89 36 6d ff 6f 42 86 6b a1 9c 60     tB..b.6m.oB.k..`
    33a0:	7a 84 80 7c 83 8e 76 77 83 7f 84 80 7c 80 80 80     z..|..vw....|...
    33b0:	80 80 7f 7f 7e 80 81 79 80 86 87 84 86 8e 64 5d     ....~..y......d]
    33c0:	80 76 ad 9b 3e 9f bb 71 80 3d 43 a5 92 90 9e a1     .v..>..q.=C.....
    33d0:	80 45 8f 8c 50 7e 4d 86 ff 86 55 7e 5f 87 88 61     .E..P~M...U~_..a
    33e0:	80 8d 8b 85 85 89 73 74 7f 7e 84 81 7d 80 80 80     ......st.~..}...
    33f0:	80 80 7f 7f 7e 82 85 7d 80 7e 78 78 86 9c 79 6b     ....~..}.~xx..yk
    3400:	80 6b a2 97 3e 9a ac 61 80 58 71 ca 92 65 61 76     .k..>..a.Xq..eav
    3410:	80 6c c0 aa 50 6c 3c 80 ff 80 47 70 5f 9a a4 75     .l..Pl<...Gp_..u
    3420:	80 7c 74 77 85 91 7d 79 7f 7c 83 81 7d 80 80 80     .|tw..}y.|..}...
    3430:	80 80 7f 7f 7d 80 82 7d 81 82 7f 7f 87 94 72 63     ....}..}......rc
    3440:	75 6a a1 a0 5b a5 ab 5f 6d 48 60 b6 97 7e 7f 8c     uj..[.._mH`..~..
    3450:	87 67 a1 8a 44 68 4e 92 ff 91 57 6d 56 86 92 73     .g..DhN...WmV..s
    3460:	83 85 80 7f 86 8d 79 76 7d 7c 83 81 7e 80 80 80     ......yv}|..~...
    3470:	80 7f 7f 81 7f 80 7f 7a 89 81 74 7d 8d 90 56 7f     .......z..t}..V.
    3480:	bc 4f 73 a7 5b ac 6f 37 e6 80 23 aa a8 76 4c 89     .Os.[.o7..#..vL.
    3490:	bd 53 7d 7f 70 d0 36 4c ff 50 42 bd 75 7f 7e 69     .S}.p.6L.PB.u.~i
    34a0:	9c 83 6d 7d 8b 8a 6d 7f 8d 78 7e 82 7e 80 7f 80     ..m}..m..x~.~...
    34b0:	80 7f 7f 81 7e 7d 7d 7a 88 87 7f 86 8d 87 54 6e     ....~}}z......Tn
    34c0:	9d 54 7d b2 80 b8 7c 3f b2 5d 1d 94 a9 97 7f a6     .T}...|?.]......
    34d0:	b9 53 5f 5a 57 b1 53 74 ff 75 5b a5 63 68 6d 68     .S_ZW.St.u[.chmh
    34e0:	9a 8f 80 87 8b 84 6b 7a 86 79 7f 82 80 80 7f 80     ......kz.y......
    34f0:	80 7f 7f 80 7e 80 82 80 88 7d 6e 77 8d 99 6d 7f     ....~....}nw..m.
    3500:	9d 46 6f ac 80 b2 6a 2b b2 80 57 c2 a9 62 33 70     .Fo...j+..W..b3p
    3510:	b9 83 9c 7f 57 9a 3e 6c ff 6e 49 94 63 7f 90 81     ....W.>l.nI.c...
    3520:	9a 79 63 76 8b 8f 77 7f 86 77 7e 82 80 80 7f 80     .ycv..w..w~.....
    3530:	80 80 7f 80 7d 7e 7f 7f 88 82 78 80 8d 90 67 71     ....}~....x...gq
    3540:	8a 4c 78 b3 95 bb 75 34 92 64 48 ac aa 81 61 8c     .Lx...u4.dH...a.
    3550:	b7 79 7e 62 47 8c 54 86 ff 85 5b 89 58 6d 7f 7c     .y~bG.T...[.Xm.|
    3560:	99 85 74 80 8b 8a 74 7b 82 78 7f 83 80 80 7f 80     ..t...t{.x......
    3570:	80 7f 7f 80 7f 81 83 7c 82 7a 77 87 93 89 51 73     .......|.zw...Qs
    3580:	b3 70 84 91 49 94 85 69 d7 67 18 99 bc 9a 59 64     .p..I..i.g....Yd
    3590:	8e 64 a2 9a 69 99 34 68 ff 6a 41 93 70 90 93 72     .d..i.4h.jA.p..r
    35a0:	86 74 71 88 90 86 6a 7b 8b 7d 80 81 7e 80 80 80     .tq...j{.}..~...
    35b0:	80 80 7f 80 7e 7f 80 7c 83 80 7f 8c 92 84 50 67     ....~..|......Pg
    35c0:	9c 6e 89 9e 6a a3 8b 65 b0 50 16 8b b9 ad 7f 83     .n..j..e.P......
    35d0:	95 60 82 77 56 8b 4c 82 ff 82 54 88 63 7a 81 6f     .`.wV.L...T.cz.o
    35e0:	89 81 7f 8e 90 82 6a 78 86 7d 80 81 7f 80 80 80     ......jx.}......
    35f0:	80 7f 7f 7f 7e 81 84 80 83 78 71 80 92 92 65 75     ....~....xq...eu
    3600:	9c 63 7d 9a 6a 9d 7c 55 b0 6c 44 b0 b9 83 42 58     .c}.j.|U.lD...BX
    3610:	95 87 b3 95 56 79 3b 7c ff 7d 46 7a 63 8d 9d 83     ....Vy;|.}Fzc...
    3620:	89 6f 69 81 90 8b 73 7c 86 7b 7f 81 7f 80 7f 80     .oi...s|.{......
    3630:	80 80 7f 7f 7d 7f 82 7f 83 7d 7a 86 92 8c 61 6b     ....}....}z...ak
    3640:	8d 63 82 a3 80 a8 83 56 96 58 3a a0 b7 97 66 73     .c.....V.X:...fs
    3650:	99 7e 96 78 49 72 4d 8f ff 8e 56 75 5a 7b 8d 7f     .~.xIrM...VuZ{..
    3660:	8b 7a 76 87 8f 87 71 79 83 7b 80 82 80 80 80 80     .zv...qy.{......
    3670:	80 7f 7f 81 80 81 7d 78 88 88 77 73 86 98 6a 73     ......}x..ws..js
    3680:	9d 65 8c 99 49 9d 90 58 b2 67 4f c0 92 53 59 ad     .e..I..X.gO..SY.
    3690:	b9 3c 67 9a 92 ac 28 5e ff 61 36 a1 8c 90 72 5d     .<g...(^.a6...r]
    36a0:	9a 92 71 71 85 8f 76 7b 86 7b 81 81 7e 80 80 80     ..qq..v{.{..~...
    36b0:	80 7f 7f 80 7f 7f 7c 78 88 8b 7f 7c 87 90 64 67     ......|x...|..dg
    36c0:	8a 65 8f a4 6a a9 94 58 92 50 41 aa 98 75 7f bc     .e..j..X.PA..u..
    36d0:	b7 40 54 77 76 9a 42 7a ff 7b 4c 94 79 7a 66 5f     .@Twv.Bz.{L.yzf_
    36e0:	99 99 80 7c 86 8a 73 78 82 7b 81 82 7f 80 80 80     ...|..sx.{......
    36f0:	80 7f 7f 80 7f 81 80 7d 88 83 71 71 87 9e 78 75     .......}..qq..xu
    3700:	8a 5a 84 a0 6a a4 85 47 92 6c 70 cf 98 4a 42 91     .Z..j..G.lp..JB.
    3710:	b7 67 85 95 76 88 31 74 ff 75 3e 86 79 8d 82 73     .g..v.1t.u>.y..s
    3720:	99 87 69 6e 86 93 7c 7c 82 7a 80 81 7f 80 80 80     ..in..||.z......
    3730:	80 80 7f 7f 7e 7f 7e 7c 88 86 7a 79 89 96 71 6b     ....~.~|..zy..qk
    3740:	7e 5b 88 a8 80 ae 8a 4a 7d 58 5f ba 9b 67 66 a3     ~[.....J}X_..gf.
    3750:	b6 63 6f 78 64 7f 45 88 ff 87 4f 7f 6d 7b 76 71     .coxd.E...O.m{vq
    3760:	99 8e 76 78 87 8e 79 79 7f 7a 80 82 80 80 80 80     ..vx..yy.z......
    3770:	80 7f 7f 80 80 82 80 7a 83 81 78 7d 8c 91 62 6b     .......z..x}..bk
    3780:	9c 7b 95 8b 3e 8c 9b 79 b0 58 3d ae a7 77 61 88     .{..>..y.X=..wa.
    3790:	95 4f 89 aa 85 87 29 71 ff 72 37 85 83 9a 85 66     .O....)q.r7....f
    37a0:	89 83 74 7d 8a 8b 72 79 86 7f 82 80 7d 80 80 80     ..t}..ry....}...
    37b0:	80 80 7f 7f 7f 80 7e 7a 83 85 7f 83 8d 8c 5e 63     ......~z......^c
    37c0:	8d 77 96 97 5b 9a 9d 74 96 48 35 9f a8 8d 7f 9b     .w..[..t.H5.....
    37d0:	99 4f 73 8a 70 7e 3e 85 ff 85 49 7e 75 86 78 66     .Os.p~>...I~u.xf
    37e0:	8b 8b 80 84 8b 87 70 76 83 7e 82 81 7e 80 80 80     ......pv.~..~...
    37f0:	80 80 7f 7f 7f 82 82 7e 83 7e 74 79 8d 97 70 6f     .......~.~ty..po
    3800:	8d 6e 8c 93 5b 95 90 66 96 5f 5c be a8 6a 4c 78     .n..[..f._\..jLx
    3810:	99 6f 9c a3 70 6f 30 80 ff 80 3d 73 75 96 90 77     .o..po0...=su..w
    3820:	8b 7c 6d 78 8b 8e 78 7a 83 7d 81 81 7e 80 80 80     .|mx..xz.}..~...
    3830:	80 80 7f 7f 7e 80 80 7d 84 82 7a 7f 8d 91 6a 67     ....~..}..z...jg
    3840:	82 6d 8f 9c 70 a0 93 64 83 50 50 ae a9 7e 6a 8b     .m..p..d.PP..~j.
    3850:	9c 6b 86 88 62 6b 42 90 ff 8e 4c 70 6b 85 83 75     .k..bkB...Lpk..u
    3860:	8d 84 77 7f 8b 8b 76 77 80 7d 81 81 7f 80 80 80     ..w...vw.}......
    3870:	80 7f 7f 82 7e 7d 81 80 83 78 7f 8b 77 7f 78 90     ....~}...x..w.x.
    3880:	8d 41 b0 ac 13 b2 be 24 96 a0 6e 7e 67 a8 7f 56     .A.....$..n~g..V
    3890:	99 81 92 5c 67 e6 38 45 ff 4a 44 cd 6f 69 8a 80     ...\g.8E.JD.oi..
    38a0:	8b 6e 80 8d 79 7f 7c 85 83 76 84 82 7c 80 80 80     .n..y.|..v..|...
    38b0:	80 7f 7f 81 7e 7b 7e 7e 84 80 88 90 7d 7b 6d 7a     ....~{~~....}{mz
    38c0:	79 4a ab b5 49 bd b8 31 75 75 56 73 78 bd a6 80     yJ..I..1uuVsx...
    38d0:	9f 75 6f 40 50 c1 55 6f ff 70 5c b2 5e 57 76 7a     .uo@P.Uo.p\.^Wvz
    38e0:	8e 80 8e 93 7e 7d 77 7e 7e 77 84 83 7e 80 80 80     ....~}w~~w..~...
    38f0:	80 7f 7f 81 7e 7e 83 84 84 75 77 82 7d 8c 87 8c     ....~~...uw.}...
    3900:	79 3c 9c b0 49 b7 a5 1c 75 98 8f a1 78 88 59 4a     y<..I...u...x.YJ
    3910:	9f a5 ac 65 50 aa 40 67 ff 69 4a a0 5e 6f 99 93     ...eP.@g.iJ.^o..
    3920:	8e 69 71 82 7e 88 83 84 7e 75 82 82 7e 80 80 80     .iq.~...~u..~...
    3930:	80 80 7f 80 7d 7c 80 82 85 7c 7f 88 81 86 7b 7b     ....}|...|....{{
    3940:	6e 44 9c b7 6a be a5 28 62 77 75 91 83 9f 7f 6e     nD..j..(bwu....n
    3950:	a2 94 8b 4c 41 99 55 82 ff 81 5c 93 54 5f 86 8a     ...LA.U...\.T_..
    3960:	8f 78 80 8a 80 84 7d 7e 7b 76 82 83 7f 80 80 80     .x....}~{v......
    3970:	80 7f 7f 80 7e 80 84 80 7e 73 7f 91 83 7d 6b 7f     ....~...~s...}k.
    3980:	8f 66 b2 95 13 98 c0 5a 9b 80 51 79 8b c0 7f 3e     .f.....Z..Qy...>
    3990:	74 87 b1 80 62 a9 36 63 ff 65 42 9f 6b 7f 9c 83     t...b.6c.eB.k...
    39a0:	7a 65 80 94 83 7e 76 7f 83 7c 84 81 7c 80 80 80     ze...~v..|..|...
    39b0:	80 7f 7f 80 7e 7e 81 7f 80 7a 87 94 86 7a 64 71     ....~~...z...zdq
    39c0:	7f 66 ad a1 3e a6 bb 5a 80 64 43 71 92 cb 9e 64     .f..>..Z.dCq...d
    39d0:	80 7c 8f 62 50 98 4d 7e ff 7e 55 92 5f 6d 88 7e     .|.bP.M~.~U._m.~
    39e0:	80 74 8b 98 85 7c 73 7b 80 7c 84 82 7d 80 80 80     .t...|s{.|..}...
    39f0:	80 7f 7f 80 7e 80 85 84 80 72 78 89 86 88 79 7f     ....~....rx...y.
    3a00:	7f 5b a2 9d 3e a1 ac 49 80 80 71 96 92 a1 61 39     .[..>..I..q...a9
    3a10:	80 a2 c0 80 50 85 3c 78 ff 79 47 84 5f 7f a4 91     ....P.<x.yG._...
    3a20:	80 62 74 8a 85 85 7d 7f 80 7a 83 81 7d 80 80 80     .bt...}..z..}...
    3a30:	80 80 7f 7f 7d 7e 82 82 81 78 7f 8d 87 84 72 74     ....}~...x....rt
    3a40:	75 5d a1 a6 5b ab ab 4c 6d 68 60 8b 97 b0 7f 5a     u]..[..Lmh`....Z
    3a50:	87 95 a1 67 44 7d 4e 8b ff 8a 57 7e 56 70 92 8a     ...gD}N...W~Vp..
    3a60:	83 70 80 8f 86 82 79 7c 7d 7a 83 82 7e 80 80 80     .p....y|}z..~...
    3a70:	80 7f 7f 81 80 80 7f 7c 84 81 7f 7e 76 8c 83 7f     .......|...~v...
    3a80:	79 5b ba 9d 13 a1 cb 49 75 80 88 9f 61 79 7f 87     y[.....Iu...ay..
    3a90:	9f 5e 77 80 8b bc 29 59 ff 5c 38 ae 87 7f 7b 6e     .^w...)Y.\8...{n
    3aa0:	8e 82 80 7d 77 87 81 7f 7e 7a 85 81 7c 80 80 80     ...}w...~z..|...
    3ab0:	80 7f 7f 80 7f 7e 7d 7b 85 85 87 85 7b 86 78 71     .....~}{....{.xq
    3ac0:	6e 5d b4 a8 3e ad c4 4c 62 64 6f 90 71 92 9e 9e     n]..>..Lbdo.q...
    3ad0:	a2 5c 60 62 71 a7 43 76 ff 77 4d 9e 75 6d 6e 6d     .\`bq.Cv.wM.umnm
    3ae0:	8f 8c 8b 86 7b 83 7c 7b 7b 7a 85 82 7d 80 80 80     ....{.|{{z..}...
    3af0:	80 7f 7f 80 7f 80 81 80 85 7d 78 79 7b 94 8d 80     .........}xy{...
    3b00:	6e 52 a9 a3 3e a8 b5 3c 62 80 9d b5 71 68 61 73     nR..>..<b...qhas
    3b10:	a2 82 91 80 71 95 32 70 ff 72 3f 90 75 7f 8a 81     ....q.2p.r?.u...
    3b20:	8f 7a 74 78 7b 8c 85 7f 7b 78 84 82 7d 80 80 80     .ztx{...{x..}...
    3b30:	80 80 7f 80 7e 7e 7f 7f 85 81 7f 80 7e 8e 82 74     ....~~......~..t
    3b40:	66 55 a7 ab 5b b1 b2 40 55 68 85 a4 7b 80 7f 8a     fU..[..@Uh..{...
    3b50:	a4 7a 7a 67 60 8a 46 85 ff 84 50 87 69 70 7c 7d     .zzg`.F...P.ip|}
    3b60:	90 84 80 80 7e 88 81 7c 7a 79 83 82 7e 80 80 80     ....~..|zy..~...
    3b70:	80 7f 7f 80 80 81 81 7d 7f 7b 7f 85 80 87 76 75     .......}.{....vu
    3b80:	7f 73 b9 8e 13 90 cb 6d 80 6c 6b 94 80 95 7f 6a     .s.....m.lk....j
    3b90:	80 6a 96 95 80 94 2a 6d ff 6e 38 8f 7f 8d 8c 74     .j....*m.n8....t
    3ba0:	80 76 80 86 80 84 7b 7c 7f 7e 85 80 7c 80 80 80     .v....{|.~..|...
    3bb0:	80 80 7f 80 7f 7f 7f 7c 81 80 85 8a 82 83 6f 6b     .......|......ok
    3bc0:	75 71 b5 99 37 9d c4 6a 6d 58 5b 89 87 a6 99 82     uq..7..jmX[.....
    3bd0:	87 66 7d 78 6c 89 40 82 ff 82 4a 87 72 7b 7e 72     .f}xl.@...J.r{~r
    3be0:	83 81 89 8c 82 82 78 79 7d 7d 85 81 7d 80 80 80     ......xy}}..}...
    3bf0:	80 7f 7f 7f 7f 81 83 80 81 79 7a 80 82 8f 80 77     .........yz....w
    3c00:	75 68 ab 95 37 98 b8 5c 6d 6f 81 a8 87 83 66 5e     uh..7..\mo....f^
    3c10:	87 86 a6 91 6c 7a 31 7d ff 7d 3e 7b 72 8b 96 83     ....lz1}.}>{r...
    3c20:	83 72 76 80 82 89 80 7d 7d 7c 84 81 7d 80 80 80     .rv....}}|..}...
    3c30:	80 80 7f 7f 7e 7f 81 7f 82 7d 7f 85 84 8a 79 6e     ....~....}....yn
    3c40:	6d 67 a9 9e 51 a2 b5 5c 61 5e 71 9c 8d 94 7f 75     mg..Q..\a^q....u
    3c50:	8d 7e 8f 79 5e 74 43 8d ff 8c 4d 77 68 7c 88 7f     .~.y^tC...Mwh|..
    3c60:	86 7b 80 86 83 86 7c 7a 7b 7c 84 81 7e 80 80 80     .{....|z{|..~...
    3c70:	80 7f 7f 81 80 7e 7d 80 88 7a 77 88 86 7f 6a 8c     .....~}..zw...j.
    3c80:	9d 51 8c a1 49 a6 90 3b b2 98 4f 7e 92 9e 59 61     .Q..I..;..O~..Ya
    3c90:	b9 81 67 65 92 cc 28 54 ff 57 36 ba 8c 6f 72 80     ..ge..(T.W6..or.
    3ca0:	9a 73 71 89 85 7f 76 84 86 78 81 81 7e 80 80 80     .sq...v..x..~...
    3cb0:	80 7f 7f 81 7f 7c 7c 7e 88 80 7f 8d 87 7c 64 7b     .....||~.....|d{
    3cc0:	8a 55 8f ab 6a b1 94 41 92 77 41 76 98 b0 7f 80     .U..j..A.wAv....
    3cd0:	b7 77 54 4c 76 b4 42 72 ff 73 4c a8 79 5f 66 7b     .wTLv.Br.sL.y_f{
    3ce0:	99 80 80 8f 86 7d 73 7e 82 79 81 82 7f 80 80 80     .....}s~.y......
    3cf0:	80 7f 7f 80 7f 7e 80 83 88 77 71 81 87 8a 78 8a     .....~...wq...x.
    3d00:	8a 4a 84 a6 6a ac 85 30 92 93 70 9b 98 86 42 55     .J..j..0..p...BU
    3d10:	b7 9d 85 6a 76 a2 31 6c ff 6e 3e 9a 79 72 82 8f     ...jv.1l.n>.yr..
    3d20:	99 6e 69 82 86 86 7c 83 82 77 80 82 7f 80 80 80     .ni...|..w......
    3d30:	80 80 7f 80 7e 7d 7e 82 88 7d 7a 87 89 85 71 7c     ....~}~..}z...q|
    3d40:	7e 4e 88 ad 80 b4 8a 37 7d 79 5f 8e 9b 99 66 71     ~N.....7}y_...fq
    3d50:	b6 91 6f 55 64 95 45 81 ff 81 4f 90 6d 65 76 88     ..oUd.E...O.mev.
    3d60:	99 79 76 88 87 83 79 7e 7f 78 80 82 80 80 80 80     .yv...y~.x......
    3d70:	80 7f 7f 80 80 80 80 80 83 76 78 8e 8c 7d 62 7f     .........vx..}b.
    3d80:	9c 6b 95 91 3e 93 9b 62 b0 80 3d 7a a7 b3 61 4b     .k..>..b..=z..aK
    3d90:	95 85 89 7f 85 a1 29 68 ff 6a 37 99 83 7f 85 82     ......)h.j7.....
    3da0:	89 6a 74 90 8a 7e 72 7f 86 7c 82 81 7d 80 80 80     .jt..~r..|..}...
    3db0:	80 7f 7f 80 7f 7e 7e 7f 83 7b 7f 91 8d 7b 5e 74     .....~~..{...{^t
    3dc0:	8d 6a 96 9c 5b a0 9d 60 96 68 35 73 a8 bf 7f 69     .j..[..`.h5s...i
    3dd0:	99 7c 73 67 70 94 3e 7e ff 7e 49 8f 75 70 78 7e     .|sgp.>~.~I.upx~
    3de0:	8b 76 80 94 8b 7d 70 7c 83 7c 82 81 7e 80 80 80     .v...}p|.|..~...
    3df0:	80 7f 7f 80 7f 80 82 83 83 74 74 87 8d 87 70 7f     .........tt...p.
    3e00:	8d 61 8c 98 5b 9b 90 52 96 80 5c 92 a8 9b 4c 45     .a..[..R..\...LE
    3e10:	99 9c 9c 7f 70 84 30 79 ff 7a 3d 83 75 7f 90 8e     ....p.0y.z=.u...
    3e20:	8b 67 6d 89 8b 84 78 7f 83 7b 81 81 7e 80 80 80     .gm...x..{..~...
    3e30:	80 80 7f 7f 7e 7e 80 82 84 79 7a 8b 8d 83 6a 75     ....~~...yz...ju
    3e40:	82 62 8f a0 70 a5 93 53 83 6c 50 89 a9 a9 6a 5f     .b..p..S.lP...j_
    3e50:	9c 92 86 6a 62 7d 42 8a ff 89 4c 7e 6b 72 83 89     ...jb}B...L~kr..
    3e60:	8d 72 77 8d 8b 82 76 7c 80 7b 81 81 7f 80 80 80     .rw...v|.{......
    3e70:	80 7f 7e 81 81 80 7c 7c 88 81 78 7e 81 89 76 7f     ..~...||..x~..v.
    3e80:	8a 62 9c 97 3e 9a a4 54 92 80 69 99 85 7a 61 85     .b..>..T..i..za.
    3e90:	b7 65 5a 7f a6 b0 1f 60 ff 63 2f a4 9a 7f 6a 72     .eZ....`.c/...jr
    3ea0:	99 82 74 7e 81 86 7b 7f 82 7b 82 81 7d 80 80 80     ..t~..{..{..}...
    3eb0:	80 7f 7f 80 80 7e 7b 7c 88 84 7f 84 84 85 6f 74     .....~{|......ot
    3ec0:	7e 63 9c a1 5b a5 a4 55 7d 68 5a 8d 8c 8f 7f 99     ~c..[..U}hZ.....
    3ed0:	b6 62 4c 67 8c a0 36 78 ff 78 42 99 88 70 62 70     .bLg..6x.xB..pbp
    3ee0:	99 8a 80 85 83 83 78 7c 7f 7b 82 81 7e 80 80 80     ......x|.{..~...
    3ef0:	80 7f 7f 80 80 80 7f 80 88 7e 74 7a 84 90 80 7f     .........~tz....
    3f00:	7e 59 92 9d 5b a1 98 47 7d 80 80 ac 8c 6c 4c 75     ~Y..[..G}....lLu
    3f10:	b6 82 75 7f 8c 91 28 73 ff 74 36 8d 88 7f 7a 81     ..u...(s.t6...z.
    3f20:	99 7b 6d 79 83 8a 80 7f 7f 7a 81 81 7e 80 80 80     .{my.....z..~...
    3f30:	80 80 7f 80 7f 7e 7d 7f 88 81 7a 80 85 8c 78 75     .....~}...z...xu
    3f40:	75 5b 94 a5 70 aa 99 49 6e 6c 70 9f 91 80 6a 88     u[..p..Inlp...j.
    3f50:	b5 7b 65 6a 79 88 3a 84 ff 84 46 86 7b 72 70 7d     .{ejy.:...F.{rp}
    3f60:	98 83 77 80 84 87 7c 7c 7d 7a 81 82 7f 80 80 80     ..w...||}z......
    3f70:	80 7f 7e 80 81 81 7f 7d 83 7c 7a 84 88 86 6d 77     ..~....}.|z...mw
    3f80:	8d 75 a0 8b 37 8d aa 70 96 6f 56 91 98 91 66 6d     .u..7..p.oV...fm
    3f90:	99 6d 79 91 98 90 21 70 ff 71 31 8c 90 8b 7c 76     .my...!p.q1...|v
    3fa0:	8b 78 76 85 86 84 77 7d 83 7e 83 80 7d 80 80 80     .xv...w}.~..}...
    3fb0:	80 80 7f 80 80 7f 7d 7d 84 80 7f 89 89 83 68 6e     ......}}......hn
    3fc0:	82 73 a0 95 51 99 a9 6d 83 5e 4c 88 9b a0 7f 82     .s..Q..m.^L.....
    3fd0:	9c 69 68 79 83 88 35 81 ff 81 41 86 82 7c 72 74     .ihy..5...A..|rt
    3fe0:	8d 80 80 8a 87 82 75 7a 80 7e 83 81 7e 80 80 80     ......uz.~..~...
    3ff0:	80 7f 7f 7f 80 80 81 80 84 7a 75 80 89 8d 77 78     .........zu...wx
    4000:	82 6b 97 92 51 95 9e 61 83 72 6d a2 9b 82 54 63     .k..Q..a.rm...Tc
    4010:	9c 85 8b 8f 83 7b 29 7d ff 7d 37 7c 82 89 86 82     .....{)}.}7|....
    4020:	8d 74 6f 80 87 88 7c 7d 80 7c 82 81 7e 80 80 80     .to...|}.|..~...
    4030:	80 80 7f 7f 7f 7f 7f 7f 84 7e 7b 84 89 89 72 70     .........~{...rp
    4040:	79 6a 98 9a 64 9e 9f 60 75 62 61 98 9e 91 6c 76     yj..d..`uba...lv
    4050:	9f 7e 7a 7a 74 76 39 8b ff 8a 45 78 78 7c 7d 7f     .~zztv9...Exx|}.
    4060:	8e 7c 78 85 88 85 79 7b 7e 7c 82 81 7f 80 80 80     .|x...y{~|......

00004070 <__ctors_end>:
    4070:	11 24       	eor	r1, r1
    4072:	1f be       	out	0x3f, r1	; 63
    4074:	cf ef       	ldi	r28, 0xFF	; 255
    4076:	d0 e1       	ldi	r29, 0x10	; 16
    4078:	de bf       	out	0x3e, r29	; 62
    407a:	cd bf       	out	0x3d, r28	; 61

0000407c <__do_copy_data>:
    407c:	11 e0       	ldi	r17, 0x01	; 1
    407e:	a0 e0       	ldi	r26, 0x00	; 0
    4080:	b1 e0       	ldi	r27, 0x01	; 1
    4082:	e0 e7       	ldi	r30, 0x70	; 112
    4084:	f4 e4       	ldi	r31, 0x44	; 68
    4086:	02 c0       	rjmp	.+4      	; 0x408c <.do_copy_data_start>

00004088 <.do_copy_data_loop>:
    4088:	05 90       	lpm	r0, Z+
    408a:	0d 92       	st	X+, r0

0000408c <.do_copy_data_start>:
    408c:	a0 31       	cpi	r26, 0x10	; 16
    408e:	b1 07       	cpc	r27, r17
    4090:	d9 f7       	brne	.-10     	; 0x4088 <.do_copy_data_loop>

00004092 <__do_clear_bss>:
    4092:	11 e0       	ldi	r17, 0x01	; 1
    4094:	a0 e1       	ldi	r26, 0x10	; 16
    4096:	b1 e0       	ldi	r27, 0x01	; 1
    4098:	01 c0       	rjmp	.+2      	; 0x409c <.do_clear_bss_start>

0000409a <.do_clear_bss_loop>:
    409a:	1d 92       	st	X+, r1

0000409c <.do_clear_bss_start>:
    409c:	a3 3b       	cpi	r26, 0xB3	; 179
    409e:	b1 07       	cpc	r27, r17
    40a0:	e1 f7       	brne	.-8      	; 0x409a <.do_clear_bss_loop>
    40a2:	0e 94 89 20 	call	0x4112	; 0x4112 <main>
    40a6:	0c 94 36 22 	jmp	0x446c	; 0x446c <_exit>

000040aa <__bad_interrupt>:
    40aa:	0c 94 00 00 	jmp	0	; 0x0 <__vectors>

000040ae <__vector_14>:
	}
}

ISR(TIMER1_COMPB_vect, ISR_NAKED) {
	//PORTD ^= (1 << PB2);
	sei();
    40ae:	78 94       	sei
	sleep_cpu();
    40b0:	88 95       	sleep
	reti();
    40b2:	18 95       	reti

000040b4 <init>:
		}
	}
}

void init() {
	DDRC = 0xff;
    40b4:	8f ef       	ldi	r24, 0xFF	; 255
    40b6:	87 b9       	out	0x07, r24	; 7
	DDRD = _BV(PB7) | _BV(PB2) | _BV(PB1) | _BV(PB0);
    40b8:	87 e8       	ldi	r24, 0x87	; 135
    40ba:	8a b9       	out	0x0a, r24	; 10

	/* Setup sampling timer */
	TCCR1B = _BV(WGM12) | _BV(CS10);	// Clear on timer compare, no prescaling
    40bc:	89 e0       	ldi	r24, 0x09	; 9
    40be:	80 93 81 00 	sts	0x0081, r24
	OCR1A = 500;				// Fire every 25us = 40000Hz (our sampling frequency)
    40c2:	84 ef       	ldi	r24, 0xF4	; 244
    40c4:	91 e0       	ldi	r25, 0x01	; 1
    40c6:	90 93 89 00 	sts	0x0089, r25
    40ca:	80 93 88 00 	sts	0x0088, r24
	OCR1B = 480;
    40ce:	80 ee       	ldi	r24, 0xE0	; 224
    40d0:	91 e0       	ldi	r25, 0x01	; 1
    40d2:	90 93 8b 00 	sts	0x008B, r25
    40d6:	80 93 8a 00 	sts	0x008A, r24
	TIMSK1 = _BV(OCIE1A) | _BV(OCIE1B);		// Enable output compare A interrupt
    40da:	96 e0       	ldi	r25, 0x06	; 6
    40dc:	90 93 6f 00 	sts	0x006F, r25

	/* Setup AD converter */
	ADMUX = _BV(REFS0) | _BV(ADLAR);
    40e0:	80 e6       	ldi	r24, 0x60	; 96
    40e2:	80 93 7c 00 	sts	0x007C, r24
	ADCSRA = _BV(ADEN) | _BV(ADSC) | 6;
    40e6:	86 ec       	ldi	r24, 0xC6	; 198
    40e8:	80 93 7a 00 	sts	0x007A, r24

	/* Setup UART */
	UCSR0B = _BV(RXEN0) | _BV(TXEN0);	// Enable receive and transmit
    40ec:	88 e1       	ldi	r24, 0x18	; 24
    40ee:	80 93 c1 00 	sts	0x00C1, r24
	UCSR0C = _BV(UCSZ01) | _BV(UCSZ00);		// Set 8-bit frames
    40f2:	90 93 c2 00 	sts	0x00C2, r25
	//UCSR0A = _BV(U2X0);

	UBRR0 = 520;	// Set baud rate to 2400
    40f6:	88 e0       	ldi	r24, 0x08	; 8
    40f8:	92 e0       	ldi	r25, 0x02	; 2
    40fa:	90 93 c5 00 	sts	0x00C5, r25
    40fe:	80 93 c4 00 	sts	0x00C4, r24

	sei();
    4102:	78 94       	sei
	set_sleep_mode(SLEEP_MODE_IDLE);
    4104:	83 b7       	in	r24, 0x33	; 51
    4106:	81 7f       	andi	r24, 0xF1	; 241
    4108:	83 bf       	out	0x33, r24	; 51
	sleep_enable();
    410a:	83 b7       	in	r24, 0x33	; 51
    410c:	81 60       	ori	r24, 0x01	; 1
    410e:	83 bf       	out	0x33, r24	; 51
}
    4110:	08 95       	ret

00004112 <main>:
	sei();
	sleep_cpu();
	reti();
}

int main() {
    4112:	6f 92       	push	r6
    4114:	7f 92       	push	r7
    4116:	9f 92       	push	r9
    4118:	af 92       	push	r10
    411a:	bf 92       	push	r11
    411c:	cf 92       	push	r12
    411e:	df 92       	push	r13
    4120:	ef 92       	push	r14
    4122:	ff 92       	push	r15
    4124:	0f 93       	push	r16
    4126:	df 93       	push	r29
    4128:	cf 93       	push	r28
    412a:	00 d0       	rcall	.+0      	; 0x412c <main+0x1a>
    412c:	cd b7       	in	r28, 0x3d	; 61
    412e:	de b7       	in	r29, 0x3e	; 62
	int8_t input_sample;
	uint16_t analyze_output;
	int16_t analyze_temp;
	uint8_t start = 0, detected=0;
	init();
    4130:	0e 94 5a 20 	call	0x40b4	; 0x40b4 <init>
    4134:	00 e0       	ldi	r16, 0x00	; 0
    4136:	ff 24       	eor	r15, r15
	while(1) {
		if(UCSR0A & _BV(RXC0)) {	// We've received a serial byte
			while(output_buffer_status[next_buffer] != IDLE) {;}
			output_buffer[next_buffer] = UDR0;
			output_buffer_status[next_buffer] = START_BIT;
    4138:	99 24       	eor	r9, r9
    413a:	9a 94       	dec	r9
						--start;
						UDR0='1';
					}
					else if(start > 0) {
						--start;
						UDR0='0';
    413c:	a0 e3       	ldi	r26, 0x30	; 48
    413e:	aa 2e       	mov	r10, r26
				if(resample_buffer_position == 7) {
					resample_buffer_position = 0;
					input_buffer_resample_position += float2fix(4.);
					if(detected && start > 0) {
						--start;
						UDR0='1';
    4140:	f1 e3       	ldi	r31, 0x31	; 49
    4142:	bf 2e       	mov	r11, r31
				analyze_output += (analyze_temp * analyze_temp);

				if(analyze_output > 50) {
					detected = 1;
					sin_acc = cos_acc = 0;
					memset(resample_buffer_sin, 0, sizeof(uint8_t) * 7);
    4144:	ec ea       	ldi	r30, 0xAC	; 172
    4146:	ce 2e       	mov	r12, r30
    4148:	e1 e0       	ldi	r30, 0x01	; 1
    414a:	de 2e       	mov	r13, r30
    414c:	77 e0       	ldi	r23, 0x07	; 7
    414e:	e7 2e       	mov	r14, r23
					memset(resample_buffer_cos, 0, sizeof(uint8_t) * 7);
    4150:	6d e1       	ldi	r22, 0x1D	; 29
    4152:	66 2e       	mov	r6, r22
    4154:	61 e0       	ldi	r22, 0x01	; 1
    4156:	76 2e       	mov	r7, r22
	int16_t analyze_temp;
	uint8_t start = 0, detected=0;
	init();
	while(1) {
		if(UCSR0A & _BV(RXC0)) {	// We've received a serial byte
			while(output_buffer_status[next_buffer] != IDLE) {;}
    4158:	80 91 11 01 	lds	r24, 0x0111
    415c:	90 e0       	ldi	r25, 0x00	; 0
    415e:	dc 01       	movw	r26, r24
    4160:	a0 50       	subi	r26, 0x00	; 0
    4162:	bf 4f       	sbci	r27, 0xFF	; 255
			output_buffer[next_buffer] = UDR0;
    4164:	fc 01       	movw	r30, r24
    4166:	ec 5d       	subi	r30, 0xDC	; 220
    4168:	fe 4f       	sbci	r31, 0xFE	; 254
	uint16_t analyze_output;
	int16_t analyze_temp;
	uint8_t start = 0, detected=0;
	init();
	while(1) {
		if(UCSR0A & _BV(RXC0)) {	// We've received a serial byte
    416a:	80 91 c0 00 	lds	r24, 0x00C0
    416e:	87 ff       	sbrs	r24, 7
    4170:	0a c0       	rjmp	.+20     	; 0x4186 <main+0x74>
			while(output_buffer_status[next_buffer] != IDLE) {;}
    4172:	8c 91       	ld	r24, X
    4174:	8e 3f       	cpi	r24, 0xFE	; 254
    4176:	e9 f7       	brne	.-6      	; 0x4172 <main+0x60>
			output_buffer[next_buffer] = UDR0;
    4178:	80 91 c6 00 	lds	r24, 0x00C6
    417c:	80 83       	st	Z, r24
			output_buffer_status[next_buffer] = START_BIT;
    417e:	9c 92       	st	X, r9
			UDR0 = output_buffer[next_buffer];	
    4180:	80 81       	ld	r24, Z
    4182:	80 93 c6 00 	sts	0x00C6, r24
			//next_buffer = (next_buffer + 1) & 0x7;
		}
		if(input_ready) {
    4186:	80 91 13 01 	lds	r24, 0x0113
    418a:	88 23       	and	r24, r24
    418c:	71 f3       	breq	.-36     	; 0x416a <main+0x58>
			if(fix2int(input_buffer_resample_position + float2fix(10./4.)) < public_input_buffer_position){// || fix2int(input_buffer_resample_position + float2fix(10./4.)) - public_input_buffer_position > IN_BUFFER_SIZE / 2) {
    418e:	80 91 1c 01 	lds	r24, 0x011C
    4192:	20 91 19 01 	lds	r18, 0x0119
    4196:	30 91 1a 01 	lds	r19, 0x011A
    419a:	20 50       	subi	r18, 0x00	; 0
    419c:	36 4f       	sbci	r19, 0xF6	; 246
    419e:	93 2f       	mov	r25, r19
    41a0:	96 95       	lsr	r25
    41a2:	96 95       	lsr	r25
    41a4:	98 17       	cp	r25, r24
    41a6:	08 f0       	brcs	.+2      	; 0x41aa <main+0x98>
    41a8:	b8 c0       	rjmp	.+368    	; 0x431a <main+0x208>

				analyze_temp = sin_acc >> 2;
    41aa:	80 91 15 01 	lds	r24, 0x0115
    41ae:	90 91 16 01 	lds	r25, 0x0116
    41b2:	95 95       	asr	r25
    41b4:	87 95       	ror	r24
    41b6:	95 95       	asr	r25
    41b8:	87 95       	ror	r24
				analyze_output = analyze_temp * analyze_temp;
    41ba:	88 9f       	mul	r24, r24
    41bc:	90 01       	movw	r18, r0
    41be:	89 9f       	mul	r24, r25
    41c0:	30 0d       	add	r19, r0
    41c2:	98 9f       	mul	r25, r24
    41c4:	30 0d       	add	r19, r0
    41c6:	11 24       	eor	r1, r1
				analyze_temp = cos_acc >> 2;
    41c8:	80 91 17 01 	lds	r24, 0x0117
    41cc:	90 91 18 01 	lds	r25, 0x0118
    41d0:	95 95       	asr	r25
    41d2:	87 95       	ror	r24
    41d4:	95 95       	asr	r25
    41d6:	87 95       	ror	r24
				analyze_output += (analyze_temp * analyze_temp);

				if(analyze_output > 50) {
    41d8:	ac 01       	movw	r20, r24
    41da:	44 9f       	mul	r20, r20
    41dc:	c0 01       	movw	r24, r0
    41de:	45 9f       	mul	r20, r21
    41e0:	90 0d       	add	r25, r0
    41e2:	54 9f       	mul	r21, r20
    41e4:	90 0d       	add	r25, r0
    41e6:	11 24       	eor	r1, r1
    41e8:	82 0f       	add	r24, r18
    41ea:	93 1f       	adc	r25, r19
    41ec:	c3 97       	sbiw	r24, 0x33	; 51
    41ee:	c8 f0       	brcs	.+50     	; 0x4222 <main+0x110>
					detected = 1;
					sin_acc = cos_acc = 0;
    41f0:	10 92 18 01 	sts	0x0118, r1
    41f4:	10 92 17 01 	sts	0x0117, r1
    41f8:	10 92 16 01 	sts	0x0116, r1
    41fc:	10 92 15 01 	sts	0x0115, r1
					memset(resample_buffer_sin, 0, sizeof(uint8_t) * 7);
    4200:	f6 01       	movw	r30, r12
    4202:	4e 2d       	mov	r20, r14
    4204:	11 92       	st	Z+, r1
    4206:	4a 95       	dec	r20
    4208:	e9 f7       	brne	.-6      	; 0x4204 <main+0xf2>
					memset(resample_buffer_cos, 0, sizeof(uint8_t) * 7);
    420a:	f3 01       	movw	r30, r6
    420c:	4e 2d       	mov	r20, r14
    420e:	11 92       	st	Z+, r1
    4210:	4a 95       	dec	r20
    4212:	e9 f7       	brne	.-6      	; 0x420e <main+0xfc>
					if(start==0) {
    4214:	00 23       	and	r16, r16
    4216:	19 f4       	brne	.+6      	; 0x421e <main+0x10c>
						start = 8;
						resample_buffer_position = 7;
    4218:	e0 92 14 01 	sts	0x0114, r14
    421c:	08 e0       	ldi	r16, 0x08	; 8
    421e:	ff 24       	eor	r15, r15
    4220:	f3 94       	inc	r15
						//input_buffer_resample_position += int2fix(4);
					}
				}

				if(resample_buffer_position == 7) {
    4222:	80 91 14 01 	lds	r24, 0x0114
    4226:	87 30       	cpi	r24, 0x07	; 7
    4228:	d1 f4       	brne	.+52     	; 0x425e <main+0x14c>
					resample_buffer_position = 0;
    422a:	10 92 14 01 	sts	0x0114, r1
					input_buffer_resample_position += float2fix(4.);
    422e:	80 91 19 01 	lds	r24, 0x0119
    4232:	90 91 1a 01 	lds	r25, 0x011A
    4236:	80 50       	subi	r24, 0x00	; 0
    4238:	90 4f       	sbci	r25, 0xF0	; 240
    423a:	90 93 1a 01 	sts	0x011A, r25
    423e:	80 93 19 01 	sts	0x0119, r24
					if(detected && start > 0) {
    4242:	ff 20       	and	r15, r15
    4244:	39 f0       	breq	.+14     	; 0x4254 <main+0x142>
    4246:	00 23       	and	r16, r16
    4248:	19 f0       	breq	.+6      	; 0x4250 <main+0x13e>
						--start;
    424a:	01 50       	subi	r16, 0x01	; 1
						UDR0='1';
    424c:	b0 92 c6 00 	sts	0x00C6, r11
    4250:	ff 24       	eor	r15, r15
    4252:	05 c0       	rjmp	.+10     	; 0x425e <main+0x14c>
					}
					else if(start > 0) {
    4254:	00 23       	and	r16, r16
    4256:	19 f0       	breq	.+6      	; 0x425e <main+0x14c>
						--start;
    4258:	01 50       	subi	r16, 0x01	; 1
						UDR0='0';
    425a:	a0 92 c6 00 	sts	0x00C6, r10
					}
					detected = 0;
				}
				sin_acc -= resample_buffer_sin[resample_buffer_position];
    425e:	70 91 14 01 	lds	r23, 0x0114
    4262:	a7 2f       	mov	r26, r23
    4264:	b0 e0       	ldi	r27, 0x00	; 0
    4266:	cd 01       	movw	r24, r26
    4268:	84 55       	subi	r24, 0x54	; 84
    426a:	9e 4f       	sbci	r25, 0xFE	; 254
    426c:	9a 83       	std	Y+2, r25	; 0x02
    426e:	89 83       	std	Y+1, r24	; 0x01
    4270:	fc 01       	movw	r30, r24
    4272:	80 81       	ld	r24, Z
    4274:	99 27       	eor	r25, r25
    4276:	87 fd       	sbrc	r24, 7
    4278:	90 95       	com	r25
    427a:	20 91 15 01 	lds	r18, 0x0115
    427e:	30 91 16 01 	lds	r19, 0x0116
    4282:	28 1b       	sub	r18, r24
    4284:	39 0b       	sbc	r19, r25
    4286:	30 93 16 01 	sts	0x0116, r19
    428a:	20 93 15 01 	sts	0x0115, r18
				input_sample = input_buffer[fix2int(input_buffer_resample_position)];
    428e:	40 91 19 01 	lds	r20, 0x0119
    4292:	50 91 1a 01 	lds	r21, 0x011A
    4296:	e5 2f       	mov	r30, r21
    4298:	e6 95       	lsr	r30
    429a:	e6 95       	lsr	r30
    429c:	f0 e0       	ldi	r31, 0x00	; 0
    429e:	e4 5d       	subi	r30, 0xD4	; 212
    42a0:	fe 4f       	sbci	r31, 0xFE	; 254
    42a2:	60 81       	ld	r22, Z
				sin_acc += input_sample;
    42a4:	86 2f       	mov	r24, r22
    42a6:	99 27       	eor	r25, r25
    42a8:	87 fd       	sbrc	r24, 7
    42aa:	90 95       	com	r25
    42ac:	82 0f       	add	r24, r18
    42ae:	93 1f       	adc	r25, r19
    42b0:	90 93 16 01 	sts	0x0116, r25
    42b4:	80 93 15 01 	sts	0x0115, r24
				resample_buffer_sin[resample_buffer_position] = input_sample;
    42b8:	e9 81       	ldd	r30, Y+1	; 0x01
    42ba:	fa 81       	ldd	r31, Y+2	; 0x02
    42bc:	60 83       	st	Z, r22

				cos_acc -= resample_buffer_cos[resample_buffer_position];
    42be:	a3 5e       	subi	r26, 0xE3	; 227
    42c0:	be 4f       	sbci	r27, 0xFE	; 254
    42c2:	8c 91       	ld	r24, X
    42c4:	99 27       	eor	r25, r25
    42c6:	87 fd       	sbrc	r24, 7
    42c8:	90 95       	com	r25
    42ca:	20 91 17 01 	lds	r18, 0x0117
    42ce:	30 91 18 01 	lds	r19, 0x0118
    42d2:	28 1b       	sub	r18, r24
    42d4:	39 0b       	sbc	r19, r25
    42d6:	30 93 18 01 	sts	0x0118, r19
    42da:	20 93 17 01 	sts	0x0117, r18
				input_sample = input_buffer[fix2int(input_buffer_resample_position + float2fix(10./4.))];
    42de:	40 50       	subi	r20, 0x00	; 0
    42e0:	56 4f       	sbci	r21, 0xF6	; 246
    42e2:	e5 2f       	mov	r30, r21
    42e4:	e6 95       	lsr	r30
    42e6:	e6 95       	lsr	r30
    42e8:	f0 e0       	ldi	r31, 0x00	; 0
    42ea:	e4 5d       	subi	r30, 0xD4	; 212
    42ec:	fe 4f       	sbci	r31, 0xFE	; 254
    42ee:	60 81       	ld	r22, Z
				cos_acc += input_sample;
    42f0:	86 2f       	mov	r24, r22
    42f2:	99 27       	eor	r25, r25
    42f4:	87 fd       	sbrc	r24, 7
    42f6:	90 95       	com	r25
    42f8:	82 0f       	add	r24, r18
    42fa:	93 1f       	adc	r25, r19
    42fc:	90 93 18 01 	sts	0x0118, r25
    4300:	80 93 17 01 	sts	0x0117, r24
				resample_buffer_cos[resample_buffer_position] = input_sample;
    4304:	6c 93       	st	X, r22

				++resample_buffer_position;
    4306:	7f 5f       	subi	r23, 0xFF	; 255
    4308:	70 93 14 01 	sts	0x0114, r23
				input_buffer_resample_position += float2fix(10.);
    430c:	40 50       	subi	r20, 0x00	; 0
    430e:	52 4e       	sbci	r21, 0xE2	; 226
    4310:	50 93 1a 01 	sts	0x011A, r21
    4314:	40 93 19 01 	sts	0x0119, r20
    4318:	1f cf       	rjmp	.-450    	; 0x4158 <main+0x46>
			}
			else  {
				input_ready = 0;
    431a:	10 92 13 01 	sts	0x0113, r1
    431e:	1c cf       	rjmp	.-456    	; 0x4158 <main+0x46>

00004320 <__vector_13>:
uint16_t input_buffer_resample_position = 0;
uint8_t input_buffer_pos = 0;
volatile uint8_t public_input_buffer_position = 0;
void init();

ISR(TIMER1_COMPA_vect) {
    4320:	1f 92       	push	r1
    4322:	0f 92       	push	r0
    4324:	0f b6       	in	r0, 0x3f	; 63
    4326:	0f 92       	push	r0
    4328:	11 24       	eor	r1, r1
    432a:	2f 93       	push	r18
    432c:	3f 93       	push	r19
    432e:	4f 93       	push	r20
    4330:	5f 93       	push	r21
    4332:	6f 93       	push	r22
    4334:	7f 93       	push	r23
    4336:	8f 93       	push	r24
    4338:	9f 93       	push	r25
    433a:	af 93       	push	r26
    433c:	bf 93       	push	r27
    433e:	cf 93       	push	r28
    4340:	df 93       	push	r29
    4342:	ef 93       	push	r30
    4344:	ff 93       	push	r31
	uint8_t i;
	PORTD &= ~_BV(PB7);
    4346:	5f 98       	cbi	0x0b, 7	; 11
	PORTC = freqCache[output_sample_num];
    4348:	90 91 10 01 	lds	r25, 0x0110
    434c:	e9 2f       	mov	r30, r25
    434e:	f0 e0       	ldi	r31, 0x00	; 0
    4350:	e4 59       	subi	r30, 0x94	; 148
    4352:	fe 4f       	sbci	r31, 0xFE	; 254
    4354:	80 81       	ld	r24, Z
    4356:	88 b9       	out	0x08, r24	; 8
	output_sample_num = (output_sample_num + 1) & 0x3f;
    4358:	9f 5f       	subi	r25, 0xFF	; 255
    435a:	9f 73       	andi	r25, 0x3F	; 63
    435c:	90 93 10 01 	sts	0x0110, r25
	PORTD |= _BV(PB7);	
    4360:	5f 9a       	sbi	0x0b, 7	; 11
	input_buffer[input_buffer_pos] = ADCH - 128;
    4362:	40 91 1b 01 	lds	r20, 0x011B
    4366:	24 2f       	mov	r18, r20
    4368:	30 e0       	ldi	r19, 0x00	; 0
    436a:	80 91 79 00 	lds	r24, 0x0079
    436e:	80 58       	subi	r24, 0x80	; 128
    4370:	f9 01       	movw	r30, r18
    4372:	e4 5d       	subi	r30, 0xD4	; 212
    4374:	fe 4f       	sbci	r31, 0xFE	; 254
    4376:	80 83       	st	Z, r24
	//UDR0 = ADCH;
	ADCSRA |= _BV(ADSC);
    4378:	80 91 7a 00 	lds	r24, 0x007A
    437c:	80 64       	ori	r24, 0x40	; 64
    437e:	80 93 7a 00 	sts	0x007A, r24
	public_input_buffer_position = input_buffer_pos;
    4382:	40 93 1c 01 	sts	0x011C, r20
	input_ready |= ((input_buffer_pos & (NOTIFY_FREQ * 2 - 1)) == NOTIFY_FREQ);
    4386:	50 91 13 01 	lds	r21, 0x0113
    438a:	80 e0       	ldi	r24, 0x00	; 0
    438c:	2f 71       	andi	r18, 0x1F	; 31
    438e:	30 70       	andi	r19, 0x00	; 0
    4390:	20 31       	cpi	r18, 0x10	; 16
    4392:	31 05       	cpc	r19, r1
    4394:	09 f4       	brne	.+2      	; 0x4398 <__vector_13+0x78>
    4396:	81 e0       	ldi	r24, 0x01	; 1
    4398:	85 2b       	or	r24, r21
    439a:	80 93 13 01 	sts	0x0113, r24
	input_buffer_pos = (input_buffer_pos+1) & (IN_BUFFER_SIZE - 1);
    439e:	4f 5f       	subi	r20, 0xFF	; 255
    43a0:	4f 73       	andi	r20, 0x3F	; 63
    43a2:	40 93 1b 01 	sts	0x011B, r20
	if(output_sample_num == 0) {
    43a6:	99 23       	and	r25, r25
    43a8:	09 f0       	breq	.+2      	; 0x43ac <__vector_13+0x8c>
    43aa:	44 c0       	rjmp	.+136    	; 0x4434 <__vector_13+0x114>
    43ac:	a8 e0       	ldi	r26, 0x08	; 8
    43ae:	b1 e0       	ldi	r27, 0x01	; 1
    43b0:	60 e0       	ldi	r22, 0x00	; 0
    43b2:	40 e0       	ldi	r20, 0x00	; 0
    43b4:	50 e0       	ldi	r21, 0x00	; 0
			}
			else if(output_buffer_status[i] == STOP_BIT) {
				output_buffer_status[i] = IDLE;
				continue;
			}
			else if(bitmasks[7-output_buffer_status[i]] & output_buffer[i]) {
    43b6:	c7 e0       	ldi	r28, 0x07	; 7
    43b8:	d0 e0       	ldi	r29, 0x00	; 0
			if(output_buffer_status[i] == IDLE) {continue;}
			else if(output_buffer_status[i] == START_BIT) {
				output_bitpattern |= bitmasks[i];
			}
			else if(output_buffer_status[i] == STOP_BIT) {
				output_buffer_status[i] = IDLE;
    43ba:	3e ef       	ldi	r19, 0xFE	; 254
	input_ready |= ((input_buffer_pos & (NOTIFY_FREQ * 2 - 1)) == NOTIFY_FREQ);
	input_buffer_pos = (input_buffer_pos+1) & (IN_BUFFER_SIZE - 1);
	if(output_sample_num == 0) {
		output_bitpattern = 0;
		for(i=0; i<8; ++i) {
			if(output_buffer_status[i] == IDLE) {continue;}
    43bc:	fa 01       	movw	r30, r20
    43be:	e0 50       	subi	r30, 0x00	; 0
    43c0:	ff 4f       	sbci	r31, 0xFF	; 255
    43c2:	80 81       	ld	r24, Z
    43c4:	8e 3f       	cpi	r24, 0xFE	; 254
    43c6:	01 f1       	breq	.+64     	; 0x4408 <__vector_13+0xe8>
			else if(output_buffer_status[i] == START_BIT) {
    43c8:	80 81       	ld	r24, Z
    43ca:	8f 3f       	cpi	r24, 0xFF	; 255
    43cc:	a9 f0       	breq	.+42     	; 0x43f8 <__vector_13+0xd8>
				output_bitpattern |= bitmasks[i];
			}
			else if(output_buffer_status[i] == STOP_BIT) {
    43ce:	80 81       	ld	r24, Z
    43d0:	88 30       	cpi	r24, 0x08	; 8
    43d2:	11 f4       	brne	.+4      	; 0x43d8 <__vector_13+0xb8>
				output_buffer_status[i] = IDLE;
    43d4:	30 83       	st	Z, r19
    43d6:	18 c0       	rjmp	.+48     	; 0x4408 <__vector_13+0xe8>
				continue;
			}
			else if(bitmasks[7-output_buffer_status[i]] & output_buffer[i]) {
    43d8:	80 81       	ld	r24, Z
    43da:	fa 01       	movw	r30, r20
    43dc:	ec 5d       	subi	r30, 0xDC	; 220
    43de:	fe 4f       	sbci	r31, 0xFE	; 254
    43e0:	20 81       	ld	r18, Z
    43e2:	99 27       	eor	r25, r25
    43e4:	87 fd       	sbrc	r24, 7
    43e6:	90 95       	com	r25
    43e8:	fe 01       	movw	r30, r28
    43ea:	e8 1b       	sub	r30, r24
    43ec:	f9 0b       	sbc	r31, r25
    43ee:	e8 5f       	subi	r30, 0xF8	; 248
    43f0:	fe 4f       	sbci	r31, 0xFE	; 254
    43f2:	80 81       	ld	r24, Z
    43f4:	28 23       	and	r18, r24
    43f6:	11 f0       	breq	.+4      	; 0x43fc <__vector_13+0xdc>
				output_bitpattern |= bitmasks[i];
    43f8:	8c 91       	ld	r24, X
    43fa:	68 2b       	or	r22, r24
			}
			++output_buffer_status[i];
    43fc:	fa 01       	movw	r30, r20
    43fe:	e0 50       	subi	r30, 0x00	; 0
    4400:	ff 4f       	sbci	r31, 0xFF	; 255
    4402:	80 81       	ld	r24, Z
    4404:	8f 5f       	subi	r24, 0xFF	; 255
    4406:	80 83       	st	Z, r24
    4408:	4f 5f       	subi	r20, 0xFF	; 255
    440a:	5f 4f       	sbci	r21, 0xFF	; 255
    440c:	11 96       	adiw	r26, 0x01	; 1
	public_input_buffer_position = input_buffer_pos;
	input_ready |= ((input_buffer_pos & (NOTIFY_FREQ * 2 - 1)) == NOTIFY_FREQ);
	input_buffer_pos = (input_buffer_pos+1) & (IN_BUFFER_SIZE - 1);
	if(output_sample_num == 0) {
		output_bitpattern = 0;
		for(i=0; i<8; ++i) {
    440e:	48 30       	cpi	r20, 0x08	; 8
    4410:	51 05       	cpc	r21, r1
    4412:	a1 f6       	brne	.-88     	; 0x43bc <__vector_13+0x9c>
    4414:	60 93 12 01 	sts	0x0112, r22
			else if(bitmasks[7-output_buffer_status[i]] & output_buffer[i]) {
				output_bitpattern |= bitmasks[i];
			}
			++output_buffer_status[i];
		}
		memcpy_P(freqCache, freqTable[output_bitpattern], sizeof(uint8_t) * 64);
    4418:	70 e0       	ldi	r23, 0x00	; 0
    441a:	b6 e0       	ldi	r27, 0x06	; 6
    441c:	66 0f       	add	r22, r22
    441e:	77 1f       	adc	r23, r23
    4420:	ba 95       	dec	r27
    4422:	e1 f7       	brne	.-8      	; 0x441c <__vector_13+0xfc>
    4424:	60 59       	subi	r22, 0x90	; 144
    4426:	7f 4f       	sbci	r23, 0xFF	; 255
    4428:	8c e6       	ldi	r24, 0x6C	; 108
    442a:	91 e0       	ldi	r25, 0x01	; 1
    442c:	40 e4       	ldi	r20, 0x40	; 64
    442e:	50 e0       	ldi	r21, 0x00	; 0
    4430:	0e 94 2d 22 	call	0x445a	; 0x445a <memcpy_P>
	}
}
    4434:	ff 91       	pop	r31
    4436:	ef 91       	pop	r30
    4438:	df 91       	pop	r29
    443a:	cf 91       	pop	r28
    443c:	bf 91       	pop	r27
    443e:	af 91       	pop	r26
    4440:	9f 91       	pop	r25
    4442:	8f 91       	pop	r24
    4444:	7f 91       	pop	r23
    4446:	6f 91       	pop	r22
    4448:	5f 91       	pop	r21
    444a:	4f 91       	pop	r20
    444c:	3f 91       	pop	r19
    444e:	2f 91       	pop	r18
    4450:	0f 90       	pop	r0
    4452:	0f be       	out	0x3f, r0	; 63
    4454:	0f 90       	pop	r0
    4456:	1f 90       	pop	r1
    4458:	18 95       	reti

0000445a <memcpy_P>:
    445a:	fb 01       	movw	r30, r22
    445c:	dc 01       	movw	r26, r24
    445e:	02 c0       	rjmp	.+4      	; 0x4464 <memcpy_P+0xa>
    4460:	05 90       	lpm	r0, Z+
    4462:	0d 92       	st	X+, r0
    4464:	41 50       	subi	r20, 0x01	; 1
    4466:	50 40       	sbci	r21, 0x00	; 0
    4468:	d8 f7       	brcc	.-10     	; 0x4460 <memcpy_P+0x6>
    446a:	08 95       	ret

0000446c <_exit>:
    446c:	f8 94       	cli

0000446e <__stop_program>:
    446e:	ff cf       	rjmp	.-2      	; 0x446e <__stop_program>
